ARM GAS  C:\Users\JEANPI~1\AppData\Local\Temp\cc1Bj5GC.s 			page 1


   1              		.syntax unified
   2              		.cpu cortex-m3
   3              		.fpu softvfp
   4              		.eabi_attribute 20, 1
   5              		.eabi_attribute 21, 1
   6              		.eabi_attribute 23, 3
   7              		.eabi_attribute 24, 1
   8              		.eabi_attribute 25, 1
   9              		.eabi_attribute 26, 1
  10              		.eabi_attribute 30, 1
  11              		.eabi_attribute 34, 1
  12              		.eabi_attribute 18, 4
  13              		.thumb
  14              		.syntax unified
  15              		.file	"main.c"
  16              		.text
  17              	.Ltext0:
  18              		.cfi_sections	.debug_frame
  19              		.section	.text.Timer_ISR,"ax",%progbits
  20              		.align	2
  21              		.global	Timer_ISR
  22              		.thumb
  23              		.thumb_func
  24              		.type	Timer_ISR, %function
  25              	Timer_ISR:
  26              	.LFB67:
  27              		.file 1 "main.c"
   1:main.c        **** #include "project.h"
   2:main.c        **** #include "device.h"
   3:main.c        **** #include "string.h"
   4:main.c        **** #include "project.h"
   5:main.c        **** #include <stdio.h>
   6:main.c        **** #include <stdlib.h>
   7:main.c        **** #define VMAX 400;
   8:main.c        **** 
   9:main.c        **** int flag=1;
  10:main.c        **** char valor[4];
  11:main.c        **** uint8 contador;
  12:main.c        **** volatile uint32 counter,event=0;
  13:main.c        **** volatile uint16 tiempo=0;
  14:main.c        **** volatile uint32 temp,diff1=0;
  15:main.c        **** volatile uint16 pwm_Com=0;
  16:main.c        **** volatile uint16 speed,speed_read=0; //default user_speed;
  17:main.c        **** int flag1=0;
  18:main.c        **** int flag_init=0;
  19:main.c        **** char str[16],str2[16];
  20:main.c        **** 
  21:main.c        **** 
  22:main.c        **** char8 Keypad_1_Key[4][4] = {
  23:main.c        **** 					{'1','2','3','A'},		//Row 0
  24:main.c        **** 					
  25:main.c        **** 					{'4','5','6','B'},		//Row 1
  26:main.c        **** 										
  27:main.c        **** 					{'7','8','9','C'},		//Row 2
  28:main.c        **** 					
  29:main.c        **** 					{'*','0','#','D'}		//Row 3
  30:main.c        **** 				  };
ARM GAS  C:\Users\JEANPI~1\AppData\Local\Temp\cc1Bj5GC.s 			page 2


  31:main.c        **** 
  32:main.c        **** 
  33:main.c        **** 
  34:main.c        **** 
  35:main.c        **** /////////////////convertir velocidad usuario a pwm valor//////////////////
  36:main.c        **** void Convert_Speed(){} 
  37:main.c        **** //////////////////////////////////////////////////////////////////////////
  38:main.c        **** 
  39:main.c        **** ///////////colocamos la velocidad/////////////////////////////////////////
  40:main.c        **** void Set_Speed(){ //Proposito Es Colocar la velocidad  
  41:main.c        ****     PWM_WriteCompare(pwm_Com); 
  42:main.c        **** }
  43:main.c        **** //////////////////////////////////////////////////////////////////////////
  44:main.c        **** 
  45:main.c        **** /////////////////////funcion de control///////////////////////////////////
  46:main.c        **** void Control_Motor(){if(speed_read != speed){pwm_Com++;PWM_WriteCompare(pwm_Com);} } 
  47:main.c        **** //////////////////////////////////////////////////////////////////////////
  48:main.c        **** 
  49:main.c        **** /////////////////////////////configuracion del timer//////////////////////
  50:main.c        **** CY_ISR(Timer_ISR){ //AL SEGUNDO
  28              		.loc 1 50 0
  29              		.cfi_startproc
  30              		@ args = 0, pretend = 0, frame = 0
  31              		@ frame_needed = 0, uses_anonymous_args = 0
  32 0000 10B5     		push	{r4, lr}
  33              		.cfi_def_cfa_offset 8
  34              		.cfi_offset 4, -8
  35              		.cfi_offset 14, -4
  51:main.c        **** if(tiempo<1){
  36              		.loc 1 51 0
  37 0002 114B     		ldr	r3, .L5
  38 0004 1B88     		ldrh	r3, [r3]
  39 0006 9BB2     		uxth	r3, r3
  40 0008 93B9     		cbnz	r3, .L2
  52:main.c        ****     tiempo++;
  41              		.loc 1 52 0
  42 000a 0F4A     		ldr	r2, .L5
  43 000c 1388     		ldrh	r3, [r2]
  44 000e 9BB2     		uxth	r3, r3
  45 0010 0133     		adds	r3, r3, #1
  46 0012 9BB2     		uxth	r3, r3
  47 0014 1380     		strh	r3, [r2]	@ movhi
  53:main.c        ****     diff1=0;
  48              		.loc 1 53 0
  49 0016 0023     		movs	r3, #0
  50 0018 5360     		str	r3, [r2, #4]
  54:main.c        ****     temp=counter;
  51              		.loc 1 54 0
  52 001a 0C4B     		ldr	r3, .L5+4
  53 001c 1968     		ldr	r1, [r3]
  54 001e 0C4B     		ldr	r3, .L5+8
  55 0020 1960     		str	r1, [r3]
  55:main.c        ****     speed_read=temp;
  56              		.loc 1 55 0
  57 0022 1B68     		ldr	r3, [r3]
  58 0024 9BB2     		uxth	r3, r3
  59 0026 1381     		strh	r3, [r2, #8]	@ movhi
ARM GAS  C:\Users\JEANPI~1\AppData\Local\Temp\cc1Bj5GC.s 			page 3


  56:main.c        ****     Pin_2_Write(1);
  60              		.loc 1 56 0
  61 0028 0120     		movs	r0, #1
  62 002a FFF7FEFF 		bl	Pin_2_Write
  63              	.LVL0:
  64 002e 07E0     		b	.L3
  65              	.L2:
  57:main.c        **** }else{
  58:main.c        ****     tiempo=0; 
  66              		.loc 1 58 0
  67 0030 0024     		movs	r4, #0
  68 0032 054B     		ldr	r3, .L5
  69 0034 1C80     		strh	r4, [r3]	@ movhi
  59:main.c        ****     Pin_2_Write(0);
  70              		.loc 1 59 0
  71 0036 2046     		mov	r0, r4
  72 0038 FFF7FEFF 		bl	Pin_2_Write
  73              	.LVL1:
  60:main.c        ****     counter=0;
  74              		.loc 1 60 0
  75 003c 034B     		ldr	r3, .L5+4
  76 003e 1C60     		str	r4, [r3]
  77              	.L3:
  61:main.c        **** }
  62:main.c        ****  isr_1_ClearPending();
  78              		.loc 1 62 0
  79 0040 FFF7FEFF 		bl	isr_1_ClearPending
  80              	.LVL2:
  81 0044 10BD     		pop	{r4, pc}
  82              	.L6:
  83 0046 00BF     		.align	2
  84              	.L5:
  85 0048 00000000 		.word	.LANCHOR0
  86 004c 00000000 		.word	counter
  87 0050 00000000 		.word	temp
  88              		.cfi_endproc
  89              	.LFE67:
  90              		.size	Timer_ISR, .-Timer_ISR
  91              		.section	.text.Encoder_ISR,"ax",%progbits
  92              		.align	2
  93              		.global	Encoder_ISR
  94              		.thumb
  95              		.thumb_func
  96              		.type	Encoder_ISR, %function
  97              	Encoder_ISR:
  98              	.LFB68:
  63:main.c        **** }
  64:main.c        **** //////////////////////////////////////////////////////////////////////////
  65:main.c        **** 
  66:main.c        **** //////////////////funcion de lectura del encoder//////////////////////////
  67:main.c        **** CY_ISR(Encoder_ISR){
  99              		.loc 1 67 0
 100              		.cfi_startproc
 101              		@ args = 0, pretend = 0, frame = 0
 102              		@ frame_needed = 0, uses_anonymous_args = 0
 103 0000 08B5     		push	{r3, lr}
 104              		.cfi_def_cfa_offset 8
ARM GAS  C:\Users\JEANPI~1\AppData\Local\Temp\cc1Bj5GC.s 			page 4


 105              		.cfi_offset 3, -8
 106              		.cfi_offset 14, -4
 107              	.LVL3:
  68:main.c        ****  uint8 flag2=0;
  69:main.c        **** if(Encoder_Read()==1){ 
 108              		.loc 1 69 0
 109 0002 FFF7FEFF 		bl	Encoder_Read
 110              	.LVL4:
 111 0006 0128     		cmp	r0, #1
 112 0008 05D1     		bne	.L10
 113              	.LVL5:
  70:main.c        ****      flag2=1;
  71:main.c        ****      CyDelayUs(2000);
 114              		.loc 1 71 0
 115 000a 4FF4FA60 		mov	r0, #2000
 116 000e FFF7FEFF 		bl	CyDelayUs
 117              	.LVL6:
  70:main.c        ****      flag2=1;
 118              		.loc 1 70 0
 119 0012 0123     		movs	r3, #1
 120 0014 00E0     		b	.L8
 121              	.LVL7:
 122              	.L10:
  68:main.c        ****  uint8 flag2=0;
 123              		.loc 1 68 0
 124 0016 0023     		movs	r3, #0
 125              	.LVL8:
 126              	.L8:
  72:main.c        **** }
  73:main.c        ****      if(flag2==1) 
 127              		.loc 1 73 0
 128 0018 1BB1     		cbz	r3, .L9
  74:main.c        ****      counter++;
 129              		.loc 1 74 0
 130 001a 034A     		ldr	r2, .L12
 131 001c 1368     		ldr	r3, [r2]
 132              	.LVL9:
 133 001e 0133     		adds	r3, r3, #1
 134 0020 1360     		str	r3, [r2]
 135              	.L9:
  75:main.c        ****      Encoder_ClearInterrupt();
 136              		.loc 1 75 0
 137 0022 FFF7FEFF 		bl	Encoder_ClearInterrupt
 138              	.LVL10:
 139 0026 08BD     		pop	{r3, pc}
 140              	.L13:
 141              		.align	2
 142              	.L12:
 143 0028 00000000 		.word	counter
 144              		.cfi_endproc
 145              	.LFE68:
 146              		.size	Encoder_ISR, .-Encoder_ISR
 147              		.section	.text.sync,"ax",%progbits
 148              		.align	2
 149              		.global	sync
 150              		.thumb
 151              		.thumb_func
ARM GAS  C:\Users\JEANPI~1\AppData\Local\Temp\cc1Bj5GC.s 			page 5


 152              		.type	sync, %function
 153              	sync:
 154              	.LFB69:
  76:main.c        **** }
  77:main.c        **** //////////////////////////////////////////////////////////////////////////
  78:main.c        **** 
  79:main.c        **** //////////////////funcion de sincronismo y cruce por cero/////////////////
  80:main.c        **** CY_ISR(sync){
 155              		.loc 1 80 0
 156              		.cfi_startproc
 157              		@ args = 0, pretend = 0, frame = 0
 158              		@ frame_needed = 0, uses_anonymous_args = 0
 159 0000 08B5     		push	{r3, lr}
 160              		.cfi_def_cfa_offset 8
 161              		.cfi_offset 3, -8
 162              		.cfi_offset 14, -4
  81:main.c        ****  flag_init=(flag1==1)?1:0;
 163              		.loc 1 81 0
 164 0002 054A     		ldr	r2, .L16
 165 0004 D368     		ldr	r3, [r2, #12]
 166 0006 012B     		cmp	r3, #1
 167 0008 14BF     		ite	ne
 168 000a 0023     		movne	r3, #0
 169 000c 0123     		moveq	r3, #1
 170 000e 1361     		str	r3, [r2, #16]
  82:main.c        ****  sync_ClearInterrupt();
 171              		.loc 1 82 0
 172 0010 FFF7FEFF 		bl	sync_ClearInterrupt
 173              	.LVL11:
 174 0014 08BD     		pop	{r3, pc}
 175              	.L17:
 176 0016 00BF     		.align	2
 177              	.L16:
 178 0018 00000000 		.word	.LANCHOR0
 179              		.cfi_endproc
 180              	.LFE69:
 181              		.size	sync, .-sync
 182              		.section	.text.press_ISR,"ax",%progbits
 183              		.align	2
 184              		.global	press_ISR
 185              		.thumb
 186              		.thumb_func
 187              		.type	press_ISR, %function
 188              	press_ISR:
 189              	.LFB70:
  83:main.c        **** }
  84:main.c        **** //////////////////////////////////////////////////////////////////////////
  85:main.c        **** 
  86:main.c        **** ////////////////////obtenemos de valor de velocidad///////////////////////
  87:main.c        **** CY_ISR(press_ISR){
 190              		.loc 1 87 0
 191              		.cfi_startproc
 192              		@ args = 0, pretend = 0, frame = 0
 193              		@ frame_needed = 0, uses_anonymous_args = 0
 194 0000 70B5     		push	{r4, r5, r6, lr}
 195              		.cfi_def_cfa_offset 16
 196              		.cfi_offset 4, -16
ARM GAS  C:\Users\JEANPI~1\AppData\Local\Temp\cc1Bj5GC.s 			page 6


 197              		.cfi_offset 5, -12
 198              		.cfi_offset 6, -8
 199              		.cfi_offset 14, -4
 200              	.LVL12:
  88:main.c        **** 
  89:main.c        **** int valid=0;  //variable de control de interrupcion  
  90:main.c        **** int cont=0;// variable de conteo
 201              		.loc 1 90 0
 202 0002 0025     		movs	r5, #0
  89:main.c        **** int cont=0;// variable de conteo
 203              		.loc 1 89 0
 204 0004 2E46     		mov	r6, r5
  91:main.c        **** char t;//variable de letra
  92:main.c        ****     while (valid==0 && flag==1){                   
 205              		.loc 1 92 0
 206 0006 38E0     		b	.L20
 207              	.LVL13:
 208              	.L25:
  93:main.c        ****             LCD_Position(0,0);
 209              		.loc 1 93 0
 210 0008 0021     		movs	r1, #0
 211 000a 0846     		mov	r0, r1
 212 000c FFF7FEFF 		bl	LCD_Position
 213              	.LVL14:
  94:main.c        ****             LCD_PrintString("vel de control");
 214              		.loc 1 94 0
 215 0010 1D48     		ldr	r0, .L27
 216 0012 FFF7FEFF 		bl	LCD_PrintString
 217              	.LVL15:
  95:main.c        ****             t=Keypad_1_GetButton();//obtenemos la letra
 218              		.loc 1 95 0
 219 0016 FFF7FEFF 		bl	Keypad_1_GetButton
 220              	.LVL16:
 221 001a 0446     		mov	r4, r0
 222              	.LVL17:
  96:main.c        ****             CyDelay(200);          //delay necesario para leer bien el teclado 
 223              		.loc 1 96 0
 224 001c C820     		movs	r0, #200
 225 001e FFF7FEFF 		bl	CyDelay
 226              	.LVL18:
  97:main.c        ****             LCD_Position(1,0);
 227              		.loc 1 97 0
 228 0022 0021     		movs	r1, #0
 229 0024 0120     		movs	r0, #1
 230 0026 FFF7FEFF 		bl	LCD_Position
 231              	.LVL19:
  98:main.c        ****             LCD_PrintString("valor:");             
 232              		.loc 1 98 0
 233 002a 1848     		ldr	r0, .L27+4
 234 002c FFF7FEFF 		bl	LCD_PrintString
 235              	.LVL20:
  99:main.c        ****             LCD_Position(1,6+cont);       
 236              		.loc 1 99 0
 237 0030 A91D     		adds	r1, r5, #6
 238 0032 C9B2     		uxtb	r1, r1
 239 0034 0120     		movs	r0, #1
 240 0036 FFF7FEFF 		bl	LCD_Position
ARM GAS  C:\Users\JEANPI~1\AppData\Local\Temp\cc1Bj5GC.s 			page 7


 241              	.LVL21:
 100:main.c        ****             LCD_PutChar(t);
 242              		.loc 1 100 0
 243 003a 2046     		mov	r0, r4
 244 003c FFF7FEFF 		bl	LCD_PutChar
 245              	.LVL22:
 101:main.c        ****             if (Keypad_1_GetButton() == 'A'){//aceptacion de valor introducido
 246              		.loc 1 101 0
 247 0040 FFF7FEFF 		bl	Keypad_1_GetButton
 248              	.LVL23:
 249 0044 4128     		cmp	r0, #65
 250 0046 18D1     		bne	.L20
 102:main.c        ****                 valor[cont]=t;// agregamos valor al array
 251              		.loc 1 102 0
 252 0048 114B     		ldr	r3, .L27+8
 253 004a 5C55     		strb	r4, [r3, r5]
 103:main.c        ****                 CyDelay(300);//delay para leer la aceptacion
 254              		.loc 1 103 0
 255 004c 4FF49670 		mov	r0, #300
 256 0050 FFF7FEFF 		bl	CyDelay
 257              	.LVL24:
 104:main.c        ****                 //LCD_Position(1,6+cont);
 105:main.c        ****                 //LCD_PutChar(valor[cont]);                            
 106:main.c        ****                 cont++;   //amentamos contador
 258              		.loc 1 106 0
 259 0054 0135     		adds	r5, r5, #1
 260              	.LVL25:
 107:main.c        ****                 if ((cont>=4 && Keypad_1_GetButton() == 'B')|| flag==0){ //decicion de salir de int
 261              		.loc 1 107 0
 262 0056 032D     		cmp	r5, #3
 263 0058 03DD     		ble	.L21
 264              		.loc 1 107 0 is_stmt 0 discriminator 1
 265 005a FFF7FEFF 		bl	Keypad_1_GetButton
 266              	.LVL26:
 267 005e 4228     		cmp	r0, #66
 268 0060 02D0     		beq	.L22
 269              	.L21:
 270              		.loc 1 107 0 discriminator 3
 271 0062 0C4B     		ldr	r3, .L27+12
 272 0064 1B68     		ldr	r3, [r3]
 273 0066 43B9     		cbnz	r3, .L20
 274              	.L22:
 275              	.LVL27:
 108:main.c        ****                     valid=1;//terminamos control
 109:main.c        ****                     flag=0;//no dejamos que vuelva a entrar a la interrupcion
 276              		.loc 1 109 0 is_stmt 1
 277 0068 0022     		movs	r2, #0
 278 006a 0A4B     		ldr	r3, .L27+12
 279 006c 1A60     		str	r2, [r3]
 110:main.c        ****                     flag1=1;
 280              		.loc 1 110 0
 281 006e 0A4B     		ldr	r3, .L27+16
 282 0070 0126     		movs	r6, #1
 283 0072 DE60     		str	r6, [r3, #12]
 111:main.c        ****                     flag_init=1;
 284              		.loc 1 111 0
 285 0074 1E61     		str	r6, [r3, #16]
ARM GAS  C:\Users\JEANPI~1\AppData\Local\Temp\cc1Bj5GC.s 			page 8


 112:main.c        ****                     isr_press_ClearPending();
 286              		.loc 1 112 0
 287 0076 FFF7FEFF 		bl	isr_press_ClearPending
 288              	.LVL28:
 289              	.L20:
  92:main.c        ****             LCD_Position(0,0);
 290              		.loc 1 92 0
 291 007a 1EB9     		cbnz	r6, .L18
  92:main.c        ****             LCD_Position(0,0);
 292              		.loc 1 92 0 is_stmt 0 discriminator 1
 293 007c 054B     		ldr	r3, .L27+12
 294 007e 1B68     		ldr	r3, [r3]
 295 0080 012B     		cmp	r3, #1
 296 0082 C1D0     		beq	.L25
 297              	.L18:
 298 0084 70BD     		pop	{r4, r5, r6, pc}
 299              	.LVL29:
 300              	.L28:
 301 0086 00BF     		.align	2
 302              	.L27:
 303 0088 00000000 		.word	.LC0
 304 008c 10000000 		.word	.LC1
 305 0090 00000000 		.word	valor
 306 0094 00000000 		.word	.LANCHOR1
 307 0098 00000000 		.word	.LANCHOR0
 308              		.cfi_endproc
 309              	.LFE70:
 310              		.size	press_ISR, .-press_ISR
 311              		.section	.text.Convert_Speed,"ax",%progbits
 312              		.align	2
 313              		.global	Convert_Speed
 314              		.thumb
 315              		.thumb_func
 316              		.type	Convert_Speed, %function
 317              	Convert_Speed:
 318              	.LFB64:
  36:main.c        **** //////////////////////////////////////////////////////////////////////////
 319              		.loc 1 36 0 is_stmt 1
 320              		.cfi_startproc
 321              		@ args = 0, pretend = 0, frame = 0
 322              		@ frame_needed = 0, uses_anonymous_args = 0
 323              		@ link register save eliminated.
 324 0000 7047     		bx	lr
 325              		.cfi_endproc
 326              	.LFE64:
 327              		.size	Convert_Speed, .-Convert_Speed
 328 0002 00BF     		.section	.text.Set_Speed,"ax",%progbits
 329              		.align	2
 330              		.global	Set_Speed
 331              		.thumb
 332              		.thumb_func
 333              		.type	Set_Speed, %function
 334              	Set_Speed:
 335              	.LFB65:
  40:main.c        ****     PWM_WriteCompare(pwm_Com); 
 336              		.loc 1 40 0
 337              		.cfi_startproc
ARM GAS  C:\Users\JEANPI~1\AppData\Local\Temp\cc1Bj5GC.s 			page 9


 338              		@ args = 0, pretend = 0, frame = 0
 339              		@ frame_needed = 0, uses_anonymous_args = 0
  40:main.c        ****     PWM_WriteCompare(pwm_Com); 
 340              		.loc 1 40 0
 341 0000 08B5     		push	{r3, lr}
 342              		.cfi_def_cfa_offset 8
 343              		.cfi_offset 3, -8
 344              		.cfi_offset 14, -4
  41:main.c        **** }
 345              		.loc 1 41 0
 346 0002 034B     		ldr	r3, .L32
 347 0004 988A     		ldrh	r0, [r3, #20]
 348 0006 80B2     		uxth	r0, r0
 349 0008 FFF7FEFF 		bl	PWM_WriteCompare
 350              	.LVL30:
 351 000c 08BD     		pop	{r3, pc}
 352              	.L33:
 353 000e 00BF     		.align	2
 354              	.L32:
 355 0010 00000000 		.word	.LANCHOR0
 356              		.cfi_endproc
 357              	.LFE65:
 358              		.size	Set_Speed, .-Set_Speed
 359              		.section	.text.Control_Motor,"ax",%progbits
 360              		.align	2
 361              		.global	Control_Motor
 362              		.thumb
 363              		.thumb_func
 364              		.type	Control_Motor, %function
 365              	Control_Motor:
 366              	.LFB66:
  46:main.c        **** //////////////////////////////////////////////////////////////////////////
 367              		.loc 1 46 0
 368              		.cfi_startproc
 369              		@ args = 0, pretend = 0, frame = 0
 370              		@ frame_needed = 0, uses_anonymous_args = 0
 371 0000 08B5     		push	{r3, lr}
 372              		.cfi_def_cfa_offset 8
 373              		.cfi_offset 3, -8
 374              		.cfi_offset 14, -4
  46:main.c        **** //////////////////////////////////////////////////////////////////////////
 375              		.loc 1 46 0
 376 0002 094B     		ldr	r3, .L37
 377 0004 1A89     		ldrh	r2, [r3, #8]
 378 0006 92B2     		uxth	r2, r2
 379 0008 084B     		ldr	r3, .L37+4
 380 000a 1B88     		ldrh	r3, [r3]
 381 000c 9BB2     		uxth	r3, r3
 382 000e 9A42     		cmp	r2, r3
 383 0010 09D0     		beq	.L34
  46:main.c        **** //////////////////////////////////////////////////////////////////////////
 384              		.loc 1 46 0 is_stmt 0 discriminator 1
 385 0012 054A     		ldr	r2, .L37
 386 0014 938A     		ldrh	r3, [r2, #20]
 387 0016 9BB2     		uxth	r3, r3
 388 0018 0133     		adds	r3, r3, #1
 389 001a 9BB2     		uxth	r3, r3
ARM GAS  C:\Users\JEANPI~1\AppData\Local\Temp\cc1Bj5GC.s 			page 10


 390 001c 9382     		strh	r3, [r2, #20]	@ movhi
 391 001e 908A     		ldrh	r0, [r2, #20]
 392 0020 80B2     		uxth	r0, r0
 393 0022 FFF7FEFF 		bl	PWM_WriteCompare
 394              	.LVL31:
 395              	.L34:
 396 0026 08BD     		pop	{r3, pc}
 397              	.L38:
 398              		.align	2
 399              	.L37:
 400 0028 00000000 		.word	.LANCHOR0
 401 002c 00000000 		.word	speed
 402              		.cfi_endproc
 403              	.LFE66:
 404              		.size	Control_Motor, .-Control_Motor
 405              		.section	.text.main,"ax",%progbits
 406              		.align	2
 407              		.global	main
 408              		.thumb
 409              		.thumb_func
 410              		.type	main, %function
 411              	main:
 412              	.LFB71:
 113:main.c        ****                 }
 114:main.c        ****             }
 115:main.c        ****            
 116:main.c        ****     }
 117:main.c        ****     
 118:main.c        **** }
 119:main.c        **** //////////////////////////////////////////////////////////////////////////
 120:main.c        **** 
 121:main.c        **** 
 122:main.c        **** int main(void)
 123:main.c        **** {
 413              		.loc 1 123 0 is_stmt 1
 414              		.cfi_startproc
 415              		@ args = 0, pretend = 0, frame = 0
 416              		@ frame_needed = 0, uses_anonymous_args = 0
 417 0000 10B5     		push	{r4, lr}
 418              		.cfi_def_cfa_offset 8
 419              		.cfi_offset 4, -8
 420              		.cfi_offset 14, -4
 124:main.c        ****     //--------------interrupcione-----------
 125:main.c        ****     CyGlobalIntEnable;
 421              		.loc 1 125 0
 422              		.syntax unified
 423              	@ 125 "main.c" 1
 424 0002 62B6     		CPSIE   i
 425              	@ 0 "" 2
 126:main.c        ****     isr_press_StartEx(press_ISR);
 426              		.loc 1 126 0
 427              		.thumb
 428              		.syntax unified
 429 0004 2248     		ldr	r0, .L43
 430 0006 FFF7FEFF 		bl	isr_press_StartEx
 431              	.LVL32:
 127:main.c        ****     isr_1_StartEx(Timer_ISR);
ARM GAS  C:\Users\JEANPI~1\AppData\Local\Temp\cc1Bj5GC.s 			page 11


 432              		.loc 1 127 0
 433 000a 2248     		ldr	r0, .L43+4
 434 000c FFF7FEFF 		bl	isr_1_StartEx
 435              	.LVL33:
 128:main.c        ****     isr_Encoder_StartEx(Encoder_ISR);
 436              		.loc 1 128 0
 437 0010 2148     		ldr	r0, .L43+8
 438 0012 FFF7FEFF 		bl	isr_Encoder_StartEx
 439              	.LVL34:
 129:main.c        ****     isr_sync_StartEx(sync); 
 440              		.loc 1 129 0
 441 0016 2148     		ldr	r0, .L43+12
 442 0018 FFF7FEFF 		bl	isr_sync_StartEx
 443              	.LVL35:
 130:main.c        ****     
 131:main.c        ****    //--------incio de LCD---------------
 132:main.c        ****     LCD_Start();
 444              		.loc 1 132 0
 445 001c FFF7FEFF 		bl	LCD_Start
 446              	.LVL36:
 133:main.c        ****     
 134:main.c        ****     //----variables--------------      
 135:main.c        ****     event=0;
 447              		.loc 1 135 0
 448 0020 0022     		movs	r2, #0
 449 0022 1F4B     		ldr	r3, .L43+16
 450 0024 9A61     		str	r2, [r3, #24]
 451              	.L41:
 136:main.c        ****     char8 i;
 137:main.c        ****     
 138:main.c        ****     for(;;)
 139:main.c        ****     {
 140:main.c        ****         if(flag_init==1){
 452              		.loc 1 140 0
 453 0026 1E4B     		ldr	r3, .L43+16
 454 0028 1B69     		ldr	r3, [r3, #16]
 455 002a 012B     		cmp	r3, #1
 456 002c 03D1     		bne	.L40
 141:main.c        ****             PWM_Start();
 457              		.loc 1 141 0
 458 002e FFF7FEFF 		bl	PWM_Start
 459              	.LVL37:
 142:main.c        ****             Timer_Start();
 460              		.loc 1 142 0
 461 0032 FFF7FEFF 		bl	Timer_Start
 462              	.LVL38:
 463              	.L40:
 143:main.c        ****         }        
 144:main.c        ****         //LCD_Position(1,2);
 145:main.c        ****         sprintf(str,"%u",speed_read);
 464              		.loc 1 145 0
 465 0036 1A4B     		ldr	r3, .L43+16
 466 0038 1A89     		ldrh	r2, [r3, #8]
 467 003a 1A4C     		ldr	r4, .L43+20
 468 003c 92B2     		uxth	r2, r2
 469 003e 1A49     		ldr	r1, .L43+24
 470 0040 2046     		mov	r0, r4
ARM GAS  C:\Users\JEANPI~1\AppData\Local\Temp\cc1Bj5GC.s 			page 12


 471 0042 FFF7FEFF 		bl	sprintf
 472              	.LVL39:
 146:main.c        ****         //LCD_PrintString(str); 
 147:main.c        ****         //LCD_Position(0,2);       
 148:main.c        ****         //sprintf(str2,"%lu",diff1);
 149:main.c        ****        // LCD_PrintString(str2);
 150:main.c        ****         Set_Speed();
 473              		.loc 1 150 0
 474 0046 FFF7FEFF 		bl	Set_Speed
 475              	.LVL40:
 151:main.c        ****        
 152:main.c        ****         i=speed;   
 476              		.loc 1 152 0
 477 004a 184B     		ldr	r3, .L43+28
 478 004c 1B88     		ldrh	r3, [r3]
 479              	.LVL41:
 153:main.c        ****         CyDelay(200);
 480              		.loc 1 153 0
 481 004e C820     		movs	r0, #200
 482 0050 FFF7FEFF 		bl	CyDelay
 483              	.LVL42:
 154:main.c        ****         LCD_Position(0,0);
 484              		.loc 1 154 0
 485 0054 0021     		movs	r1, #0
 486 0056 0846     		mov	r0, r1
 487 0058 FFF7FEFF 		bl	LCD_Position
 488              	.LVL43:
 155:main.c        ****         LCD_PrintString("Vel control:");
 489              		.loc 1 155 0
 490 005c 1448     		ldr	r0, .L43+32
 491 005e FFF7FEFF 		bl	LCD_PrintString
 492              	.LVL44:
 156:main.c        ****         LCD_Position(0,12);
 493              		.loc 1 156 0
 494 0062 0C21     		movs	r1, #12
 495 0064 0020     		movs	r0, #0
 496 0066 FFF7FEFF 		bl	LCD_Position
 497              	.LVL45:
 157:main.c        ****         LCD_PrintString(valor);//velocidad de control
 498              		.loc 1 157 0
 499 006a 1248     		ldr	r0, .L43+36
 500 006c FFF7FEFF 		bl	LCD_PrintString
 501              	.LVL46:
 158:main.c        ****         LCD_Position(1,0);
 502              		.loc 1 158 0
 503 0070 0021     		movs	r1, #0
 504 0072 0120     		movs	r0, #1
 505 0074 FFF7FEFF 		bl	LCD_Position
 506              	.LVL47:
 159:main.c        ****         LCD_PrintString("Vel sensor:");
 507              		.loc 1 159 0
 508 0078 0F48     		ldr	r0, .L43+40
 509 007a FFF7FEFF 		bl	LCD_PrintString
 510              	.LVL48:
 160:main.c        ****         LCD_Position(01,11);
 511              		.loc 1 160 0
 512 007e 0B21     		movs	r1, #11
ARM GAS  C:\Users\JEANPI~1\AppData\Local\Temp\cc1Bj5GC.s 			page 13


 513 0080 0120     		movs	r0, #1
 514 0082 FFF7FEFF 		bl	LCD_Position
 515              	.LVL49:
 161:main.c        ****         LCD_PrintString(str);//velocidad medida por el sensor
 516              		.loc 1 161 0
 517 0086 2046     		mov	r0, r4
 518 0088 FFF7FEFF 		bl	LCD_PrintString
 519              	.LVL50:
 162:main.c        ****     }
 520              		.loc 1 162 0
 521 008c CBE7     		b	.L41
 522              	.L44:
 523 008e 00BF     		.align	2
 524              	.L43:
 525 0090 00000000 		.word	press_ISR
 526 0094 00000000 		.word	Timer_ISR
 527 0098 00000000 		.word	Encoder_ISR
 528 009c 00000000 		.word	sync
 529 00a0 00000000 		.word	.LANCHOR0
 530 00a4 00000000 		.word	str
 531 00a8 18000000 		.word	.LC2
 532 00ac 00000000 		.word	speed
 533 00b0 1C000000 		.word	.LC3
 534 00b4 00000000 		.word	valor
 535 00b8 2C000000 		.word	.LC4
 536              		.cfi_endproc
 537              	.LFE71:
 538              		.size	main, .-main
 539              		.comm	str2,16,4
 540              		.comm	str,16,4
 541              		.global	flag_init
 542              		.global	flag1
 543              		.global	speed_read
 544              		.comm	speed,2,2
 545              		.global	pwm_Com
 546              		.global	diff1
 547              		.comm	temp,4,4
 548              		.global	tiempo
 549              		.global	event
 550              		.comm	counter,4,4
 551              		.comm	contador,1,1
 552              		.comm	valor,4,4
 553              		.global	flag
 554              		.global	Keypad_1_Key
 555              		.data
 556              		.align	2
 557              		.set	.LANCHOR1,. + 0
 558              		.type	flag, %object
 559              		.size	flag, 4
 560              	flag:
 561 0000 01000000 		.word	1
 562              		.type	Keypad_1_Key, %object
 563              		.size	Keypad_1_Key, 16
 564              	Keypad_1_Key:
 565 0004 31       		.byte	49
 566 0005 32       		.byte	50
 567 0006 33       		.byte	51
ARM GAS  C:\Users\JEANPI~1\AppData\Local\Temp\cc1Bj5GC.s 			page 14


 568 0007 41       		.byte	65
 569 0008 34       		.byte	52
 570 0009 35       		.byte	53
 571 000a 36       		.byte	54
 572 000b 42       		.byte	66
 573 000c 37       		.byte	55
 574 000d 38       		.byte	56
 575 000e 39       		.byte	57
 576 000f 43       		.byte	67
 577 0010 2A       		.byte	42
 578 0011 30       		.byte	48
 579 0012 23       		.byte	35
 580 0013 44       		.byte	68
 581              		.section	.rodata.str1.4,"aMS",%progbits,1
 582              		.align	2
 583              	.LC0:
 584 0000 76656C20 		.ascii	"vel de control\000"
 584      64652063 
 584      6F6E7472 
 584      6F6C00
 585 000f 00       		.space	1
 586              	.LC1:
 587 0010 76616C6F 		.ascii	"valor:\000"
 587      723A00
 588 0017 00       		.space	1
 589              	.LC2:
 590 0018 257500   		.ascii	"%u\000"
 591 001b 00       		.space	1
 592              	.LC3:
 593 001c 56656C20 		.ascii	"Vel control:\000"
 593      636F6E74 
 593      726F6C3A 
 593      00
 594 0029 000000   		.space	3
 595              	.LC4:
 596 002c 56656C20 		.ascii	"Vel sensor:\000"
 596      73656E73 
 596      6F723A00 
 597              		.bss
 598              		.align	2
 599              		.set	.LANCHOR0,. + 0
 600              		.type	tiempo, %object
 601              		.size	tiempo, 2
 602              	tiempo:
 603 0000 0000     		.space	2
 604 0002 0000     		.space	2
 605              		.type	diff1, %object
 606              		.size	diff1, 4
 607              	diff1:
 608 0004 00000000 		.space	4
 609              		.type	speed_read, %object
 610              		.size	speed_read, 2
 611              	speed_read:
 612 0008 0000     		.space	2
 613 000a 0000     		.space	2
 614              		.type	flag1, %object
 615              		.size	flag1, 4
ARM GAS  C:\Users\JEANPI~1\AppData\Local\Temp\cc1Bj5GC.s 			page 15


 616              	flag1:
 617 000c 00000000 		.space	4
 618              		.type	flag_init, %object
 619              		.size	flag_init, 4
 620              	flag_init:
 621 0010 00000000 		.space	4
 622              		.type	pwm_Com, %object
 623              		.size	pwm_Com, 2
 624              	pwm_Com:
 625 0014 0000     		.space	2
 626 0016 0000     		.space	2
 627              		.type	event, %object
 628              		.size	event, 4
 629              	event:
 630 0018 00000000 		.space	4
 631              		.text
 632              	.Letext0:
 633              		.file 2 "c:\\program files (x86)\\cypress\\psoc creator\\4.2\\psoc creator\\import\\gnu\\arm\\5.4.
 634              		.file 3 "c:\\program files (x86)\\cypress\\psoc creator\\4.2\\psoc creator\\import\\gnu\\arm\\5.4.
 635              		.file 4 "Generated_Source\\PSoC5/cytypes.h"
 636              		.file 5 "Generated_Source\\PSoC5/core_cm3.h"
 637              		.file 6 "Generated_Source\\PSoC5/Pin_2.h"
 638              		.file 7 "Generated_Source\\PSoC5/isr_1.h"
 639              		.file 8 "Generated_Source\\PSoC5/Encoder.h"
 640              		.file 9 "Generated_Source\\PSoC5/CyLib.h"
 641              		.file 10 "Generated_Source\\PSoC5/sync.h"
 642              		.file 11 "Generated_Source\\PSoC5/LCD.h"
 643              		.file 12 "Generated_Source\\PSoC5/Keypad_1_Keypad1.h"
 644              		.file 13 "Generated_Source\\PSoC5/isr_press.h"
 645              		.file 14 "Generated_Source\\PSoC5/PWM.h"
 646              		.file 15 "Generated_Source\\PSoC5/isr_Encoder.h"
 647              		.file 16 "Generated_Source\\PSoC5/isr_sync.h"
 648              		.file 17 "Generated_Source\\PSoC5/Timer.h"
 649              		.file 18 "c:\\program files (x86)\\cypress\\psoc creator\\4.2\\psoc creator\\import\\gnu\\arm\\5.4