ARM GAS  C:\Users\santa\AppData\Local\Temp\ccnsYvRe.s 			page 1


   1              		.syntax unified
   2              		.cpu cortex-m3
   3              		.fpu softvfp
   4              		.eabi_attribute 20, 1
   5              		.eabi_attribute 21, 1
   6              		.eabi_attribute 23, 3
   7              		.eabi_attribute 24, 1
   8              		.eabi_attribute 25, 1
   9              		.eabi_attribute 26, 1
  10              		.eabi_attribute 30, 1
  11              		.eabi_attribute 34, 1
  12              		.eabi_attribute 18, 4
  13              		.thumb
  14              		.syntax unified
  15              		.file	"main.c"
  16              		.text
  17              	.Ltext0:
  18              		.cfi_sections	.debug_frame
  19              		.section	.text.Timer_ISR,"ax",%progbits
  20              		.align	2
  21              		.global	Timer_ISR
  22              		.thumb
  23              		.thumb_func
  24              		.type	Timer_ISR, %function
  25              	Timer_ISR:
  26              	.LFB64:
  27              		.file 1 "main.c"
   1:main.c        **** /* ========================================
   2:main.c        ****  *
   3:main.c        ****  * Copyright YOUR COMPANY, THE YEAR
   4:main.c        ****  * All Rights Reserved
   5:main.c        ****  * UNPUBLISHED, LICENSED SOFTWARE.
   6:main.c        ****  *
   7:main.c        ****  * CONFIDENTIAL AND PROPRIETARY INFORMATION
   8:main.c        ****  * WHICH IS THE PROPERTY OF your company.
   9:main.c        ****  *
  10:main.c        ****  * ========================================
  11:main.c        **** */
  12:main.c        **** #include "project.h"
  13:main.c        **** #include <stdio.h>
  14:main.c        **** #include <stdlib.h>
  15:main.c        **** volatile uint32 counter,event=0;
  16:main.c        **** volatile uint16 tiempo=0;
  17:main.c        **** volatile uint32 temp,diff1=0;
  18:main.c        **** char str[16],str2[16];
  19:main.c        **** CY_ISR(Timer_ISR){ //AL SEGUNDO
  28              		.loc 1 19 0
  29              		.cfi_startproc
  30              		@ args = 0, pretend = 0, frame = 0
  31              		@ frame_needed = 0, uses_anonymous_args = 0
  32 0000 08B5     		push	{r3, lr}
  33              		.cfi_def_cfa_offset 8
  34              		.cfi_offset 3, -8
  35              		.cfi_offset 14, -4
  20:main.c        ****  if(tiempo<1){
  36              		.loc 1 20 0
  37 0002 0B4B     		ldr	r3, .L5
ARM GAS  C:\Users\santa\AppData\Local\Temp\ccnsYvRe.s 			page 2


  38 0004 1B88     		ldrh	r3, [r3]
  39 0006 9BB2     		uxth	r3, r3
  40 0008 43B9     		cbnz	r3, .L2
  21:main.c        ****   tiempo++;
  41              		.loc 1 21 0
  42 000a 094A     		ldr	r2, .L5
  43 000c 1388     		ldrh	r3, [r2]
  44 000e 9BB2     		uxth	r3, r3
  45 0010 0133     		adds	r3, r3, #1
  46 0012 9BB2     		uxth	r3, r3
  47 0014 1380     		strh	r3, [r2]	@ movhi
  22:main.c        ****     diff1=0;
  48              		.loc 1 22 0
  49 0016 0023     		movs	r3, #0
  50 0018 5360     		str	r3, [r2, #4]
  51 001a 05E0     		b	.L3
  52              	.L2:
  23:main.c        **** //  diff1=((counter-temp)>0?(counter-temp):-(counter-temp));
  24:main.c        ****   //temp=counter;
  25:main.c        **** //  temp=counter;
  26:main.c        **** }else{
  27:main.c        ****   diff1=counter;
  53              		.loc 1 27 0
  54 001c 054B     		ldr	r3, .L5+4
  55 001e 1A68     		ldr	r2, [r3]
  56 0020 034B     		ldr	r3, .L5
  57 0022 5A60     		str	r2, [r3, #4]
  28:main.c        ****   tiempo=0;
  58              		.loc 1 28 0
  59 0024 0022     		movs	r2, #0
  60 0026 1A80     		strh	r2, [r3]	@ movhi
  61              	.L3:
  29:main.c        ****   //uint32 diff1=0;
  30:main.c        **** }
  31:main.c        ****  isr_1_ClearPending();
  62              		.loc 1 31 0
  63 0028 FFF7FEFF 		bl	isr_1_ClearPending
  64              	.LVL0:
  65 002c 08BD     		pop	{r3, pc}
  66              	.L6:
  67 002e 00BF     		.align	2
  68              	.L5:
  69 0030 00000000 		.word	.LANCHOR0
  70 0034 00000000 		.word	counter
  71              		.cfi_endproc
  72              	.LFE64:
  73              		.size	Timer_ISR, .-Timer_ISR
  74              		.section	.text.Encoder_ISR,"ax",%progbits
  75              		.align	2
  76              		.global	Encoder_ISR
  77              		.thumb
  78              		.thumb_func
  79              		.type	Encoder_ISR, %function
  80              	Encoder_ISR:
  81              	.LFB65:
  32:main.c        **** }
  33:main.c        **** 
ARM GAS  C:\Users\santa\AppData\Local\Temp\ccnsYvRe.s 			page 3


  34:main.c        **** CY_ISR(Encoder_ISR){
  82              		.loc 1 34 0
  83              		.cfi_startproc
  84              		@ args = 0, pretend = 0, frame = 0
  85              		@ frame_needed = 0, uses_anonymous_args = 0
  86 0000 10B5     		push	{r4, lr}
  87              		.cfi_def_cfa_offset 8
  88              		.cfi_offset 4, -8
  89              		.cfi_offset 14, -4
  35:main.c        ****   pin1_Write(1);
  90              		.loc 1 35 0
  91 0002 0120     		movs	r0, #1
  92 0004 FFF7FEFF 		bl	pin1_Write
  93              	.LVL1:
  36:main.c        **** //  CyDelayUs(3000); 
  37:main.c        ****   uint8 flag=0;
  94              		.loc 1 37 0
  95 0008 0024     		movs	r4, #0
  38:main.c        **** 
  39:main.c        ****  while(Encoder_Read()==0){ 
  96              		.loc 1 39 0
  97 000a 04E0     		b	.L8
  98              	.LVL2:
  99              	.L9:
  40:main.c        ****  flag=1;
  41:main.c        ****  CyDelayUs(2000);
 100              		.loc 1 41 0
 101 000c 4FF4FA60 		mov	r0, #2000
 102 0010 FFF7FEFF 		bl	CyDelayUs
 103              	.LVL3:
  40:main.c        ****  flag=1;
 104              		.loc 1 40 0
 105 0014 0124     		movs	r4, #1
 106              	.LVL4:
 107              	.L8:
  39:main.c        ****  flag=1;
 108              		.loc 1 39 0
 109 0016 FFF7FEFF 		bl	Encoder_Read
 110              	.LVL5:
 111 001a 0028     		cmp	r0, #0
 112 001c F6D0     		beq	.L9
  42:main.c        **** }
  43:main.c        ****  if(flag==1) 
 113              		.loc 1 43 0
 114 001e 1CB1     		cbz	r4, .L10
  44:main.c        ****  counter++;
 115              		.loc 1 44 0
 116 0020 034A     		ldr	r2, .L12
 117 0022 1368     		ldr	r3, [r2]
 118 0024 0133     		adds	r3, r3, #1
 119 0026 1360     		str	r3, [r2]
 120              	.L10:
  45:main.c        **** 
  46:main.c        ****  Encoder_ClearInterrupt();
 121              		.loc 1 46 0
 122 0028 FFF7FEFF 		bl	Encoder_ClearInterrupt
 123              	.LVL6:
ARM GAS  C:\Users\santa\AppData\Local\Temp\ccnsYvRe.s 			page 4


 124 002c 10BD     		pop	{r4, pc}
 125              	.LVL7:
 126              	.L13:
 127 002e 00BF     		.align	2
 128              	.L12:
 129 0030 00000000 		.word	counter
 130              		.cfi_endproc
 131              	.LFE65:
 132              		.size	Encoder_ISR, .-Encoder_ISR
 133              		.section	.text.main,"ax",%progbits
 134              		.align	2
 135              		.global	main
 136              		.thumb
 137              		.thumb_func
 138              		.type	main, %function
 139              	main:
 140              	.LFB66:
  47:main.c        **** }
  48:main.c        **** 
  49:main.c        **** int main(void)
  50:main.c        **** {
 141              		.loc 1 50 0
 142              		.cfi_startproc
 143              		@ Volatile: function does not return.
 144              		@ args = 0, pretend = 0, frame = 0
 145              		@ frame_needed = 0, uses_anonymous_args = 0
 146 0000 08B5     		push	{r3, lr}
 147              		.cfi_def_cfa_offset 8
 148              		.cfi_offset 3, -8
 149              		.cfi_offset 14, -4
  51:main.c        ****     CyGlobalIntEnable; /* Enable global interrupts. */
 150              		.loc 1 51 0
 151              		.syntax unified
 152              	@ 51 "main.c" 1
 153 0002 62B6     		CPSIE   i
 154              	@ 0 "" 2
  52:main.c        ****     isr_1_StartEx(Timer_ISR);
 155              		.loc 1 52 0
 156              		.thumb
 157              		.syntax unified
 158 0004 1648     		ldr	r0, .L17
 159 0006 FFF7FEFF 		bl	isr_1_StartEx
 160              	.LVL8:
  53:main.c        ****     isr_Encoder_StartEx(Encoder_ISR);
 161              		.loc 1 53 0
 162 000a 1648     		ldr	r0, .L17+4
 163 000c FFF7FEFF 		bl	isr_Encoder_StartEx
 164              	.LVL9:
  54:main.c        ****     /* Place your initialization/startup code here (e.g. MyInst_Start()) */
  55:main.c        ****     LCD_Start();
 165              		.loc 1 55 0
 166 0010 FFF7FEFF 		bl	LCD_Start
 167              	.LVL10:
  56:main.c        ****  //   Timer_EnableTriggerMode;
  57:main.c        ****     //Timer_Start();
  58:main.c        ****     event=0;
 168              		.loc 1 58 0
ARM GAS  C:\Users\santa\AppData\Local\Temp\ccnsYvRe.s 			page 5


 169 0014 0022     		movs	r2, #0
 170 0016 144B     		ldr	r3, .L17+8
 171 0018 9A60     		str	r2, [r3, #8]
 172              	.L15:
  59:main.c        **** //    Timer_ISR();
  60:main.c        ****     for(;;)
  61:main.c        ****     {
  62:main.c        ****          pin1_Write(0);  
 173              		.loc 1 62 0 discriminator 1
 174 001a 0020     		movs	r0, #0
 175 001c FFF7FEFF 		bl	pin1_Write
 176              	.LVL11:
  63:main.c        ****         Timer_Start();
 177              		.loc 1 63 0 discriminator 1
 178 0020 FFF7FEFF 		bl	Timer_Start
 179              	.LVL12:
  64:main.c        ****         LCD_Position(1,2);
 180              		.loc 1 64 0 discriminator 1
 181 0024 0221     		movs	r1, #2
 182 0026 0120     		movs	r0, #1
 183 0028 FFF7FEFF 		bl	LCD_Position
 184              	.LVL13:
  65:main.c        ****         sprintf(str,"%lu",counter);
 185              		.loc 1 65 0 discriminator 1
 186 002c 0F4B     		ldr	r3, .L17+12
 187 002e 1A68     		ldr	r2, [r3]
 188 0030 0F4D     		ldr	r5, .L17+16
 189 0032 104C     		ldr	r4, .L17+20
 190 0034 2946     		mov	r1, r5
 191 0036 2046     		mov	r0, r4
 192 0038 FFF7FEFF 		bl	sprintf
 193              	.LVL14:
  66:main.c        ****         LCD_PrintString(str);        
 194              		.loc 1 66 0 discriminator 1
 195 003c 2046     		mov	r0, r4
 196 003e FFF7FEFF 		bl	LCD_PrintString
 197              	.LVL15:
  67:main.c        ****       
  68:main.c        ****         // CyDelay(1000);
  69:main.c        **** //        if(Encoder_Read()==0)
  70:main.c        **** //          counter++;
  71:main.c        **** //        LCD_Position(1,2);
  72:main.c        **** //        LCD_PrintDecUint16(counter);
  73:main.c        ****          LCD_Position(0,2);       
 198              		.loc 1 73 0 discriminator 1
 199 0042 0221     		movs	r1, #2
 200 0044 0020     		movs	r0, #0
 201 0046 FFF7FEFF 		bl	LCD_Position
 202              	.LVL16:
  74:main.c        ****         //uint16 num=((counter-temp)>0?(counter-temp):-(counter-temp));
  75:main.c        ****         sprintf(str2,"%lu",diff1);
 203              		.loc 1 75 0 discriminator 1
 204 004a 074B     		ldr	r3, .L17+8
 205 004c 5A68     		ldr	r2, [r3, #4]
 206 004e 0A4C     		ldr	r4, .L17+24
 207 0050 2946     		mov	r1, r5
 208 0052 2046     		mov	r0, r4
ARM GAS  C:\Users\santa\AppData\Local\Temp\ccnsYvRe.s 			page 6


 209 0054 FFF7FEFF 		bl	sprintf
 210              	.LVL17:
  76:main.c        ****         LCD_PrintString(str2);
 211              		.loc 1 76 0 discriminator 1
 212 0058 2046     		mov	r0, r4
 213 005a FFF7FEFF 		bl	LCD_PrintString
 214              	.LVL18:
 215 005e DCE7     		b	.L15
 216              	.L18:
 217              		.align	2
 218              	.L17:
 219 0060 00000000 		.word	Timer_ISR
 220 0064 00000000 		.word	Encoder_ISR
 221 0068 00000000 		.word	.LANCHOR0
 222 006c 00000000 		.word	counter
 223 0070 00000000 		.word	.LC0
 224 0074 00000000 		.word	str
 225 0078 00000000 		.word	str2
 226              		.cfi_endproc
 227              	.LFE66:
 228              		.size	main, .-main
 229              		.comm	str2,16,4
 230              		.comm	str,16,4
 231              		.global	diff1
 232              		.comm	temp,4,4
 233              		.global	tiempo
 234              		.global	event
 235              		.comm	counter,4,4
 236              		.section	.rodata.str1.4,"aMS",%progbits,1
 237              		.align	2
 238              	.LC0:
 239 0000 256C7500 		.ascii	"%lu\000"
 240              		.bss
 241              		.align	2
 242              		.set	.LANCHOR0,. + 0
 243              		.type	tiempo, %object
 244              		.size	tiempo, 2
 245              	tiempo:
 246 0000 0000     		.space	2
 247 0002 0000     		.space	2
 248              		.type	diff1, %object
 249              		.size	diff1, 4
 250              	diff1:
 251 0004 00000000 		.space	4
 252              		.type	event, %object
 253              		.size	event, 4
 254              	event:
 255 0008 00000000 		.space	4
 256              		.text
 257              	.Letext0:
 258              		.file 2 "c:\\program files (x86)\\cypress\\psoc creator\\4.2\\psoc creator\\import\\gnu\\arm\\5.4.
 259              		.file 3 "c:\\program files (x86)\\cypress\\psoc creator\\4.2\\psoc creator\\import\\gnu\\arm\\5.4.
 260              		.file 4 "Generated_Source\\PSoC5/cytypes.h"
 261              		.file 5 "Generated_Source\\PSoC5/core_cm3.h"
 262              		.file 6 "Generated_Source\\PSoC5/isr_1.h"
 263              		.file 7 "Generated_Source\\PSoC5/pin1.h"
 264              		.file 8 "Generated_Source\\PSoC5/CyLib.h"
ARM GAS  C:\Users\santa\AppData\Local\Temp\ccnsYvRe.s 			page 7


 265              		.file 9 "Generated_Source\\PSoC5/Encoder.h"
 266              		.file 10 "Generated_Source\\PSoC5/isr_Encoder.h"
 267              		.file 11 "Generated_Source\\PSoC5/LCD.h"
 268              		.file 12 "Generated_Source\\PSoC5/Timer.h"
 269              		.file 13 "c:\\program files (x86)\\cypress\\psoc creator\\4.2\\psoc creator\\import\\gnu\\arm\\5.4