ARM GAS  C:\Users\JEANPI~1\AppData\Local\Temp\ccFbMV7Z.s 			page 1


   1              		.syntax unified
   2              		.cpu cortex-m3
   3              		.fpu softvfp
   4              		.eabi_attribute 20, 1
   5              		.eabi_attribute 21, 1
   6              		.eabi_attribute 23, 3
   7              		.eabi_attribute 24, 1
   8              		.eabi_attribute 25, 1
   9              		.eabi_attribute 26, 1
  10              		.eabi_attribute 30, 1
  11              		.eabi_attribute 34, 1
  12              		.eabi_attribute 18, 4
  13              		.thumb
  14              		.syntax unified
  15              		.file	"main.c"
  16              		.text
  17              	.Ltext0:
  18              		.cfi_sections	.debug_frame
  19              		.section	.text.Timer_ISR,"ax",%progbits
  20              		.align	2
  21              		.global	Timer_ISR
  22              		.thumb
  23              		.thumb_func
  24              		.type	Timer_ISR, %function
  25              	Timer_ISR:
  26              	.LFB67:
  27              		.file 1 "main.c"
   1:main.c        **** #include "project.h"
   2:main.c        **** #include "device.h"
   3:main.c        **** #include "string.h"
   4:main.c        **** #include "project.h"
   5:main.c        **** #include <stdio.h>
   6:main.c        **** #include <stdlib.h>
   7:main.c        **** #define VMAX 400;
   8:main.c        **** 
   9:main.c        **** volatile int flag;
  10:main.c        **** char valor[4];
  11:main.c        **** uint8 contador;
  12:main.c        **** volatile uint32 counter,event=0;
  13:main.c        **** volatile uint16 tiempo=0;
  14:main.c        **** volatile uint32 temp,diff1=0;
  15:main.c        **** volatile uint16 pwm_Com=0;
  16:main.c        **** volatile uint16 speed,speed_read=0; //default user_speed;
  17:main.c        **** int flag_init,flag1=0;
  18:main.c        **** char str[16],str2[16];
  19:main.c        **** 
  20:main.c        **** 
  21:main.c        **** char8 Keypad_1_Key[4][4] = {
  22:main.c        **** 					{'1','2','3','A'},		//Row 0
  23:main.c        **** 					
  24:main.c        **** 					{'4','5','6','B'},		//Row 1
  25:main.c        **** 										
  26:main.c        **** 					{'7','8','9','C'},		//Row 2
  27:main.c        **** 					
  28:main.c        **** 					{'*','0','#','D'}		//Row 3
  29:main.c        **** 				  };
  30:main.c        **** 
ARM GAS  C:\Users\JEANPI~1\AppData\Local\Temp\ccFbMV7Z.s 			page 2


  31:main.c        **** 
  32:main.c        **** 
  33:main.c        **** 
  34:main.c        **** /////////////////convertir velocidad usuario a pwm valor//////////////////
  35:main.c        **** void Convert_Speed(){} 
  36:main.c        **** //////////////////////////////////////////////////////////////////////////
  37:main.c        **** 
  38:main.c        **** ///////////colocamos la velocidad/////////////////////////////////////////
  39:main.c        **** void Set_Speed(){ //Proposito Es Colocar la velocidad  
  40:main.c        ****     PWM_WriteCompare(pwm_Com); 
  41:main.c        **** }
  42:main.c        **** //////////////////////////////////////////////////////////////////////////
  43:main.c        **** 
  44:main.c        **** /////////////////////funcion de control///////////////////////////////////
  45:main.c        **** void Control_Motor(){if(speed_read != speed){pwm_Com++;PWM_WriteCompare(pwm_Com);} } 
  46:main.c        **** //////////////////////////////////////////////////////////////////////////
  47:main.c        **** 
  48:main.c        **** /////////////////////////////configuracion del timer//////////////////////
  49:main.c        **** CY_ISR(Timer_ISR){ //AL SEGUNDO
  28              		.loc 1 49 0
  29              		.cfi_startproc
  30              		@ args = 0, pretend = 0, frame = 0
  31              		@ frame_needed = 0, uses_anonymous_args = 0
  32 0000 08B5     		push	{r3, lr}
  33              		.cfi_def_cfa_offset 8
  34              		.cfi_offset 3, -8
  35              		.cfi_offset 14, -4
  50:main.c        ****  if(tiempo<1){
  36              		.loc 1 50 0
  37 0002 0E4B     		ldr	r3, .L5
  38 0004 1B88     		ldrh	r3, [r3]
  39 0006 9BB2     		uxth	r3, r3
  40 0008 93B9     		cbnz	r3, .L2
  51:main.c        ****   tiempo++;
  41              		.loc 1 51 0
  42 000a 0C4A     		ldr	r2, .L5
  43 000c 1388     		ldrh	r3, [r2]
  44 000e 9BB2     		uxth	r3, r3
  45 0010 0133     		adds	r3, r3, #1
  46 0012 9BB2     		uxth	r3, r3
  47 0014 1380     		strh	r3, [r2]	@ movhi
  52:main.c        ****     diff1=0;
  48              		.loc 1 52 0
  49 0016 0023     		movs	r3, #0
  50 0018 5360     		str	r3, [r2, #4]
  53:main.c        **** //  diff1=((counter-temp)>0?(counter-temp):-(counter-temp));
  54:main.c        ****   temp=counter;
  51              		.loc 1 54 0
  52 001a 094B     		ldr	r3, .L5+4
  53 001c 1968     		ldr	r1, [r3]
  54 001e 094B     		ldr	r3, .L5+8
  55 0020 1960     		str	r1, [r3]
  55:main.c        ****   speed_read=temp*60;
  56              		.loc 1 55 0
  57 0022 1B68     		ldr	r3, [r3]
  58 0024 C3EB0313 		rsb	r3, r3, r3, lsl #4
  59 0028 9900     		lsls	r1, r3, #2
ARM GAS  C:\Users\JEANPI~1\AppData\Local\Temp\ccFbMV7Z.s 			page 3


  60 002a 89B2     		uxth	r1, r1
  61 002c 1181     		strh	r1, [r2, #8]	@ movhi
  62 002e 02E0     		b	.L3
  63              	.L2:
  56:main.c        **** //  temp=counter;
  57:main.c        **** }else{
  58:main.c        ****   //diff1=((counter-temp)>0?(counter-temp):-(counter-temp));;
  59:main.c        ****   tiempo=0;
  64              		.loc 1 59 0
  65 0030 0022     		movs	r2, #0
  66 0032 024B     		ldr	r3, .L5
  67 0034 1A80     		strh	r2, [r3]	@ movhi
  68              	.L3:
  60:main.c        ****   //uint32 diff1=0;
  61:main.c        **** }
  62:main.c        ****  isr_1_ClearPending();
  69              		.loc 1 62 0
  70 0036 FFF7FEFF 		bl	isr_1_ClearPending
  71              	.LVL0:
  72 003a 08BD     		pop	{r3, pc}
  73              	.L6:
  74              		.align	2
  75              	.L5:
  76 003c 00000000 		.word	.LANCHOR0
  77 0040 00000000 		.word	counter
  78 0044 00000000 		.word	temp
  79              		.cfi_endproc
  80              	.LFE67:
  81              		.size	Timer_ISR, .-Timer_ISR
  82              		.section	.text.Encoder_ISR,"ax",%progbits
  83              		.align	2
  84              		.global	Encoder_ISR
  85              		.thumb
  86              		.thumb_func
  87              		.type	Encoder_ISR, %function
  88              	Encoder_ISR:
  89              	.LFB68:
  63:main.c        **** }
  64:main.c        **** //////////////////////////////////////////////////////////////////////////
  65:main.c        **** 
  66:main.c        **** //////////////////funcion de lectura del encoder//////////////////////////
  67:main.c        **** CY_ISR(Encoder_ISR){
  90              		.loc 1 67 0
  91              		.cfi_startproc
  92              		@ args = 0, pretend = 0, frame = 0
  93              		@ frame_needed = 0, uses_anonymous_args = 0
  94 0000 10B5     		push	{r4, lr}
  95              		.cfi_def_cfa_offset 8
  96              		.cfi_offset 4, -8
  97              		.cfi_offset 14, -4
  98              	.LVL1:
  68:main.c        **** //  pin1_Write(1);
  69:main.c        **** //  CyDelayUs(3000); 
  70:main.c        ****   uint8 flag=0;
  99              		.loc 1 70 0
 100 0002 0024     		movs	r4, #0
  71:main.c        **** 
ARM GAS  C:\Users\JEANPI~1\AppData\Local\Temp\ccFbMV7Z.s 			page 4


  72:main.c        ****  while(Encoder_Read()==0){ 
 101              		.loc 1 72 0
 102 0004 04E0     		b	.L8
 103              	.LVL2:
 104              	.L9:
  73:main.c        ****  flag=1;
  74:main.c        ****  CyDelayUs(2000);
 105              		.loc 1 74 0
 106 0006 4FF4FA60 		mov	r0, #2000
 107 000a FFF7FEFF 		bl	CyDelayUs
 108              	.LVL3:
  73:main.c        ****  flag=1;
 109              		.loc 1 73 0
 110 000e 0124     		movs	r4, #1
 111              	.LVL4:
 112              	.L8:
  72:main.c        ****  flag=1;
 113              		.loc 1 72 0
 114 0010 FFF7FEFF 		bl	Encoder_Read
 115              	.LVL5:
 116 0014 0028     		cmp	r0, #0
 117 0016 F6D0     		beq	.L9
  75:main.c        **** }
  76:main.c        ****  if(flag==1) 
 118              		.loc 1 76 0
 119 0018 1CB1     		cbz	r4, .L10
  77:main.c        ****  counter++;
 120              		.loc 1 77 0
 121 001a 034A     		ldr	r2, .L12
 122 001c 1368     		ldr	r3, [r2]
 123 001e 0133     		adds	r3, r3, #1
 124 0020 1360     		str	r3, [r2]
 125              	.L10:
  78:main.c        **** // flag=0;
  79:main.c        ****  Encoder_ClearInterrupt();
 126              		.loc 1 79 0
 127 0022 FFF7FEFF 		bl	Encoder_ClearInterrupt
 128              	.LVL6:
 129 0026 10BD     		pop	{r4, pc}
 130              	.LVL7:
 131              	.L13:
 132              		.align	2
 133              	.L12:
 134 0028 00000000 		.word	counter
 135              		.cfi_endproc
 136              	.LFE68:
 137              		.size	Encoder_ISR, .-Encoder_ISR
 138              		.section	.text.sync,"ax",%progbits
 139              		.align	2
 140              		.global	sync
 141              		.thumb
 142              		.thumb_func
 143              		.type	sync, %function
 144              	sync:
 145              	.LFB69:
  80:main.c        **** }
  81:main.c        **** //////////////////////////////////////////////////////////////////////////
ARM GAS  C:\Users\JEANPI~1\AppData\Local\Temp\ccFbMV7Z.s 			page 5


  82:main.c        **** 
  83:main.c        **** //////////////////funcion de sincronismo y cruce por cero/////////////////
  84:main.c        **** CY_ISR(sync){
 146              		.loc 1 84 0
 147              		.cfi_startproc
 148              		@ args = 0, pretend = 0, frame = 0
 149              		@ frame_needed = 0, uses_anonymous_args = 0
 150 0000 08B5     		push	{r3, lr}
 151              		.cfi_def_cfa_offset 8
 152              		.cfi_offset 3, -8
 153              		.cfi_offset 14, -4
  85:main.c        ****  ///PWM_WriteCompare(0);
  86:main.c        **** // PWM_Start();
  87:main.c        ****  flag_init=(flag1==1)?1:0;
 154              		.loc 1 87 0
 155 0002 054B     		ldr	r3, .L16
 156 0004 DB68     		ldr	r3, [r3, #12]
 157 0006 012B     		cmp	r3, #1
 158 0008 14BF     		ite	ne
 159 000a 0023     		movne	r3, #0
 160 000c 0123     		moveq	r3, #1
 161 000e 034A     		ldr	r2, .L16+4
 162 0010 1360     		str	r3, [r2]
  88:main.c        **** 
  89:main.c        ****  sync_ClearInterrupt();
 163              		.loc 1 89 0
 164 0012 FFF7FEFF 		bl	sync_ClearInterrupt
 165              	.LVL8:
 166 0016 08BD     		pop	{r3, pc}
 167              	.L17:
 168              		.align	2
 169              	.L16:
 170 0018 00000000 		.word	.LANCHOR0
 171 001c 00000000 		.word	flag_init
 172              		.cfi_endproc
 173              	.LFE69:
 174              		.size	sync, .-sync
 175              		.section	.text.press_ISR,"ax",%progbits
 176              		.align	2
 177              		.global	press_ISR
 178              		.thumb
 179              		.thumb_func
 180              		.type	press_ISR, %function
 181              	press_ISR:
 182              	.LFB70:
  90:main.c        **** }
  91:main.c        **** //////////////////////////////////////////////////////////////////////////
  92:main.c        **** 
  93:main.c        **** ////////////////////////////obtencion de valor de velocidad///////////////
  94:main.c        **** CY_ISR(press_ISR){
 183              		.loc 1 94 0
 184              		.cfi_startproc
 185              		@ args = 0, pretend = 0, frame = 0
 186              		@ frame_needed = 0, uses_anonymous_args = 0
 187 0000 2DE9F041 		push	{r4, r5, r6, r7, r8, lr}
 188              		.cfi_def_cfa_offset 24
 189              		.cfi_offset 4, -24
ARM GAS  C:\Users\JEANPI~1\AppData\Local\Temp\ccFbMV7Z.s 			page 6


 190              		.cfi_offset 5, -20
 191              		.cfi_offset 6, -16
 192              		.cfi_offset 7, -12
 193              		.cfi_offset 8, -8
 194              		.cfi_offset 14, -4
 195              	.LVL9:
  95:main.c        **** 
  96:main.c        **** int valid=0;  //variable de control de interrupcion  
  97:main.c        **** int cont=0;// variable de conteo
 196              		.loc 1 97 0
 197 0004 0026     		movs	r6, #0
  96:main.c        **** int cont=0;// variable de conteo
 198              		.loc 1 96 0
 199 0006 3746     		mov	r7, r6
  98:main.c        **** char t;//variable de letra
  99:main.c        ****     while (valid==0 && flag==1){                   
 200              		.loc 1 99 0
 201 0008 42E0     		b	.L20
 202              	.LVL10:
 203              	.L25:
 100:main.c        ****             LCD_Position(0,0);
 204              		.loc 1 100 0
 205 000a 0021     		movs	r1, #0
 206 000c 0846     		mov	r0, r1
 207 000e FFF7FEFF 		bl	LCD_Position
 208              	.LVL11:
 101:main.c        ****             LCD_PrintString("vel de control");
 209              		.loc 1 101 0
 210 0012 2348     		ldr	r0, .L27
 211 0014 FFF7FEFF 		bl	LCD_PrintString
 212              	.LVL12:
 102:main.c        ****             t=Keypad_1_GetButton();//obtenemos la letra
 213              		.loc 1 102 0
 214 0018 FFF7FEFF 		bl	Keypad_1_GetButton
 215              	.LVL13:
 216 001c 0546     		mov	r5, r0
 217              	.LVL14:
 103:main.c        ****             CyDelay(200);          //delay necesario para leer bien el teclado 
 218              		.loc 1 103 0
 219 001e C820     		movs	r0, #200
 220 0020 FFF7FEFF 		bl	CyDelay
 221              	.LVL15:
 104:main.c        ****             LCD_Position(1,0);
 222              		.loc 1 104 0
 223 0024 0021     		movs	r1, #0
 224 0026 0120     		movs	r0, #1
 225 0028 FFF7FEFF 		bl	LCD_Position
 226              	.LVL16:
 105:main.c        ****             LCD_PrintString("valor:");             
 227              		.loc 1 105 0
 228 002c 1D48     		ldr	r0, .L27+4
 229 002e FFF7FEFF 		bl	LCD_PrintString
 230              	.LVL17:
 106:main.c        ****             LCD_Position(1,6+cont);       
 231              		.loc 1 106 0
 232 0032 B41D     		adds	r4, r6, #6
 233 0034 E4B2     		uxtb	r4, r4
ARM GAS  C:\Users\JEANPI~1\AppData\Local\Temp\ccFbMV7Z.s 			page 7


 234 0036 2146     		mov	r1, r4
 235 0038 0120     		movs	r0, #1
 236 003a FFF7FEFF 		bl	LCD_Position
 237              	.LVL18:
 107:main.c        ****             LCD_PutChar(t);
 238              		.loc 1 107 0
 239 003e 2846     		mov	r0, r5
 240 0040 FFF7FEFF 		bl	LCD_PutChar
 241              	.LVL19:
 108:main.c        ****             if (Keypad_1_GetButton() == 'A'){//aceptacion de valor introducido
 242              		.loc 1 108 0
 243 0044 FFF7FEFF 		bl	Keypad_1_GetButton
 244              	.LVL20:
 245 0048 4128     		cmp	r0, #65
 246 004a 21D1     		bne	.L20
 109:main.c        ****                 valor[cont]=t;// agregamos valor al array
 247              		.loc 1 109 0
 248 004c DFF86080 		ldr	r8, .L27+16
 249 0050 08F80650 		strb	r5, [r8, r6]
 110:main.c        ****                 CyDelay(300);//delay para leer la aceptacion
 250              		.loc 1 110 0
 251 0054 4FF49670 		mov	r0, #300
 252 0058 FFF7FEFF 		bl	CyDelay
 253              	.LVL21:
 111:main.c        ****                 LCD_Position(1,6+cont);
 254              		.loc 1 111 0
 255 005c 2146     		mov	r1, r4
 256 005e 0120     		movs	r0, #1
 257 0060 FFF7FEFF 		bl	LCD_Position
 258              	.LVL22:
 112:main.c        ****                 LCD_PutChar(valor[cont]);                            
 259              		.loc 1 112 0
 260 0064 18F80600 		ldrb	r0, [r8, r6]	@ zero_extendqisi2
 261 0068 FFF7FEFF 		bl	LCD_PutChar
 262              	.LVL23:
 113:main.c        ****                 cont++;   //amentamos contador
 263              		.loc 1 113 0
 264 006c 0136     		adds	r6, r6, #1
 265              	.LVL24:
 114:main.c        ****                 if ((cont>=4 && Keypad_1_GetButton() == 'B')|| flag==0){ //decicion de salir de int
 266              		.loc 1 114 0
 267 006e 032E     		cmp	r6, #3
 268 0070 03DD     		ble	.L21
 269              		.loc 1 114 0 is_stmt 0 discriminator 1
 270 0072 FFF7FEFF 		bl	Keypad_1_GetButton
 271              	.LVL25:
 272 0076 4228     		cmp	r0, #66
 273 0078 02D0     		beq	.L22
 274              	.L21:
 275              		.loc 1 114 0 discriminator 3
 276 007a 0B4B     		ldr	r3, .L27+8
 277 007c 1B68     		ldr	r3, [r3]
 278 007e 3BB9     		cbnz	r3, .L20
 279              	.L22:
 115:main.c        ****                     isr_press_ClearPending();
 280              		.loc 1 115 0 is_stmt 1
 281 0080 FFF7FEFF 		bl	isr_press_ClearPending
ARM GAS  C:\Users\JEANPI~1\AppData\Local\Temp\ccFbMV7Z.s 			page 8


 282              	.LVL26:
 116:main.c        ****                     valid=1;//terminamos control
 117:main.c        ****                     flag=0;//no dejamos que vuelva a entrar a la interrupcion
 283              		.loc 1 117 0
 284 0084 0022     		movs	r2, #0
 285 0086 084B     		ldr	r3, .L27+8
 286 0088 1A60     		str	r2, [r3]
 118:main.c        ****                     flag1=1;
 287              		.loc 1 118 0
 288 008a 0127     		movs	r7, #1
 289 008c 074B     		ldr	r3, .L27+12
 290 008e DF60     		str	r7, [r3, #12]
 291              	.LVL27:
 292              	.L20:
  99:main.c        ****             LCD_Position(0,0);
 293              		.loc 1 99 0
 294 0090 1FB9     		cbnz	r7, .L18
  99:main.c        ****             LCD_Position(0,0);
 295              		.loc 1 99 0 is_stmt 0 discriminator 1
 296 0092 054B     		ldr	r3, .L27+8
 297 0094 1B68     		ldr	r3, [r3]
 298 0096 012B     		cmp	r3, #1
 299 0098 B7D0     		beq	.L25
 300              	.L18:
 301 009a BDE8F081 		pop	{r4, r5, r6, r7, r8, pc}
 302              	.LVL28:
 303              	.L28:
 304 009e 00BF     		.align	2
 305              	.L27:
 306 00a0 00000000 		.word	.LC0
 307 00a4 10000000 		.word	.LC1
 308 00a8 00000000 		.word	flag
 309 00ac 00000000 		.word	.LANCHOR0
 310 00b0 00000000 		.word	valor
 311              		.cfi_endproc
 312              	.LFE70:
 313              		.size	press_ISR, .-press_ISR
 314              		.section	.text.Convert_Speed,"ax",%progbits
 315              		.align	2
 316              		.global	Convert_Speed
 317              		.thumb
 318              		.thumb_func
 319              		.type	Convert_Speed, %function
 320              	Convert_Speed:
 321              	.LFB64:
  35:main.c        **** //////////////////////////////////////////////////////////////////////////
 322              		.loc 1 35 0 is_stmt 1
 323              		.cfi_startproc
 324              		@ args = 0, pretend = 0, frame = 0
 325              		@ frame_needed = 0, uses_anonymous_args = 0
 326              		@ link register save eliminated.
 327 0000 7047     		bx	lr
 328              		.cfi_endproc
 329              	.LFE64:
 330              		.size	Convert_Speed, .-Convert_Speed
 331 0002 00BF     		.section	.text.Set_Speed,"ax",%progbits
 332              		.align	2
ARM GAS  C:\Users\JEANPI~1\AppData\Local\Temp\ccFbMV7Z.s 			page 9


 333              		.global	Set_Speed
 334              		.thumb
 335              		.thumb_func
 336              		.type	Set_Speed, %function
 337              	Set_Speed:
 338              	.LFB65:
  39:main.c        ****     PWM_WriteCompare(pwm_Com); 
 339              		.loc 1 39 0
 340              		.cfi_startproc
 341              		@ args = 0, pretend = 0, frame = 0
 342              		@ frame_needed = 0, uses_anonymous_args = 0
  39:main.c        ****     PWM_WriteCompare(pwm_Com); 
 343              		.loc 1 39 0
 344 0000 08B5     		push	{r3, lr}
 345              		.cfi_def_cfa_offset 8
 346              		.cfi_offset 3, -8
 347              		.cfi_offset 14, -4
  40:main.c        **** }
 348              		.loc 1 40 0
 349 0002 034B     		ldr	r3, .L32
 350 0004 188A     		ldrh	r0, [r3, #16]
 351 0006 80B2     		uxth	r0, r0
 352 0008 FFF7FEFF 		bl	PWM_WriteCompare
 353              	.LVL29:
 354 000c 08BD     		pop	{r3, pc}
 355              	.L33:
 356 000e 00BF     		.align	2
 357              	.L32:
 358 0010 00000000 		.word	.LANCHOR0
 359              		.cfi_endproc
 360              	.LFE65:
 361              		.size	Set_Speed, .-Set_Speed
 362              		.section	.text.Control_Motor,"ax",%progbits
 363              		.align	2
 364              		.global	Control_Motor
 365              		.thumb
 366              		.thumb_func
 367              		.type	Control_Motor, %function
 368              	Control_Motor:
 369              	.LFB66:
  45:main.c        **** //////////////////////////////////////////////////////////////////////////
 370              		.loc 1 45 0
 371              		.cfi_startproc
 372              		@ args = 0, pretend = 0, frame = 0
 373              		@ frame_needed = 0, uses_anonymous_args = 0
 374 0000 08B5     		push	{r3, lr}
 375              		.cfi_def_cfa_offset 8
 376              		.cfi_offset 3, -8
 377              		.cfi_offset 14, -4
  45:main.c        **** //////////////////////////////////////////////////////////////////////////
 378              		.loc 1 45 0
 379 0002 094B     		ldr	r3, .L37
 380 0004 1A89     		ldrh	r2, [r3, #8]
 381 0006 92B2     		uxth	r2, r2
 382 0008 084B     		ldr	r3, .L37+4
 383 000a 1B88     		ldrh	r3, [r3]
 384 000c 9BB2     		uxth	r3, r3
ARM GAS  C:\Users\JEANPI~1\AppData\Local\Temp\ccFbMV7Z.s 			page 10


 385 000e 9A42     		cmp	r2, r3
 386 0010 09D0     		beq	.L34
  45:main.c        **** //////////////////////////////////////////////////////////////////////////
 387              		.loc 1 45 0 is_stmt 0 discriminator 1
 388 0012 054A     		ldr	r2, .L37
 389 0014 138A     		ldrh	r3, [r2, #16]
 390 0016 9BB2     		uxth	r3, r3
 391 0018 0133     		adds	r3, r3, #1
 392 001a 9BB2     		uxth	r3, r3
 393 001c 1382     		strh	r3, [r2, #16]	@ movhi
 394 001e 108A     		ldrh	r0, [r2, #16]
 395 0020 80B2     		uxth	r0, r0
 396 0022 FFF7FEFF 		bl	PWM_WriteCompare
 397              	.LVL30:
 398              	.L34:
 399 0026 08BD     		pop	{r3, pc}
 400              	.L38:
 401              		.align	2
 402              	.L37:
 403 0028 00000000 		.word	.LANCHOR0
 404 002c 00000000 		.word	speed
 405              		.cfi_endproc
 406              	.LFE66:
 407              		.size	Control_Motor, .-Control_Motor
 408              		.section	.text.main,"ax",%progbits
 409              		.align	2
 410              		.global	main
 411              		.thumb
 412              		.thumb_func
 413              		.type	main, %function
 414              	main:
 415              	.LFB71:
 119:main.c        ****                 }
 120:main.c        ****             }
 121:main.c        ****            
 122:main.c        ****     }
 123:main.c        ****     
 124:main.c        **** }
 125:main.c        **** //////////////////////////////////////////////////////////////////////////
 126:main.c        **** 
 127:main.c        **** 
 128:main.c        **** int main(void)
 129:main.c        **** {
 416              		.loc 1 129 0 is_stmt 1
 417              		.cfi_startproc
 418              		@ args = 0, pretend = 0, frame = 0
 419              		@ frame_needed = 0, uses_anonymous_args = 0
 420 0000 38B5     		push	{r3, r4, r5, lr}
 421              		.cfi_def_cfa_offset 16
 422              		.cfi_offset 3, -16
 423              		.cfi_offset 4, -12
 424              		.cfi_offset 5, -8
 425              		.cfi_offset 14, -4
 130:main.c        ****     //--------------interrupcione-----------
 131:main.c        ****     CyGlobalIntEnable;
 426              		.loc 1 131 0
 427              		.syntax unified
ARM GAS  C:\Users\JEANPI~1\AppData\Local\Temp\ccFbMV7Z.s 			page 11


 428              	@ 131 "main.c" 1
 429 0002 62B6     		CPSIE   i
 430              	@ 0 "" 2
 132:main.c        ****     isr_press_StartEx(press_ISR);
 431              		.loc 1 132 0
 432              		.thumb
 433              		.syntax unified
 434 0004 2E48     		ldr	r0, .L43
 435 0006 FFF7FEFF 		bl	isr_press_StartEx
 436              	.LVL31:
 133:main.c        ****     
 134:main.c        ****    //--------incio de LCD---------------
 135:main.c        ****     LCD_Start();
 437              		.loc 1 135 0
 438 000a FFF7FEFF 		bl	LCD_Start
 439              	.LVL32:
 136:main.c        ****     
 137:main.c        ****     //----variables--------------
 138:main.c        ****     isr_1_StartEx(Timer_ISR);
 440              		.loc 1 138 0
 441 000e 2D48     		ldr	r0, .L43+4
 442 0010 FFF7FEFF 		bl	isr_1_StartEx
 443              	.LVL33:
 139:main.c        ****     isr_Encoder_StartEx(Encoder_ISR);
 444              		.loc 1 139 0
 445 0014 2C48     		ldr	r0, .L43+8
 446 0016 FFF7FEFF 		bl	isr_Encoder_StartEx
 447              	.LVL34:
 140:main.c        ****     isr_sync_StartEx(sync);
 448              		.loc 1 140 0
 449 001a 2C48     		ldr	r0, .L43+12
 450 001c FFF7FEFF 		bl	isr_sync_StartEx
 451              	.LVL35:
 141:main.c        ****     LCD_Start();
 452              		.loc 1 141 0
 453 0020 FFF7FEFF 		bl	LCD_Start
 454              	.LVL36:
 142:main.c        ****     event=0;
 455              		.loc 1 142 0
 456 0024 0022     		movs	r2, #0
 457 0026 2A4B     		ldr	r3, .L43+16
 458 0028 5A61     		str	r2, [r3, #20]
 459              	.L41:
 143:main.c        ****     char8 i;
 144:main.c        ****     
 145:main.c        ****     for(;;)
 146:main.c        ****     {
 147:main.c        ****         if(flag_init==1){PWM_Start(); Timer_Start();}
 460              		.loc 1 147 0
 461 002a 2A4B     		ldr	r3, .L43+20
 462 002c 1B68     		ldr	r3, [r3]
 463 002e 012B     		cmp	r3, #1
 464 0030 03D1     		bne	.L40
 465              		.loc 1 147 0 is_stmt 0 discriminator 1
 466 0032 FFF7FEFF 		bl	PWM_Start
 467              	.LVL37:
 468 0036 FFF7FEFF 		bl	Timer_Start
ARM GAS  C:\Users\JEANPI~1\AppData\Local\Temp\ccFbMV7Z.s 			page 12


 469              	.LVL38:
 470              	.L40:
 148:main.c        ****         LCD_Position(1,2);
 471              		.loc 1 148 0 is_stmt 1
 472 003a 0221     		movs	r1, #2
 473 003c 0120     		movs	r0, #1
 474 003e FFF7FEFF 		bl	LCD_Position
 475              	.LVL39:
 149:main.c        ****         sprintf(str,"%lu",counter);
 476              		.loc 1 149 0
 477 0042 254B     		ldr	r3, .L43+24
 478 0044 1A68     		ldr	r2, [r3]
 479 0046 254D     		ldr	r5, .L43+28
 480 0048 254C     		ldr	r4, .L43+32
 481 004a 2946     		mov	r1, r5
 482 004c 2046     		mov	r0, r4
 483 004e FFF7FEFF 		bl	sprintf
 484              	.LVL40:
 150:main.c        ****         LCD_PrintString(str); 
 485              		.loc 1 150 0
 486 0052 2046     		mov	r0, r4
 487 0054 FFF7FEFF 		bl	LCD_PrintString
 488              	.LVL41:
 151:main.c        ****         LCD_Position(0,2);       
 489              		.loc 1 151 0
 490 0058 0221     		movs	r1, #2
 491 005a 0020     		movs	r0, #0
 492 005c FFF7FEFF 		bl	LCD_Position
 493              	.LVL42:
 152:main.c        ****         sprintf(str2,"%lu",diff1);
 494              		.loc 1 152 0
 495 0060 1B4B     		ldr	r3, .L43+16
 496 0062 5A68     		ldr	r2, [r3, #4]
 497 0064 1F4C     		ldr	r4, .L43+36
 498 0066 2946     		mov	r1, r5
 499 0068 2046     		mov	r0, r4
 500 006a FFF7FEFF 		bl	sprintf
 501              	.LVL43:
 153:main.c        ****         LCD_PrintString(str2);
 502              		.loc 1 153 0
 503 006e 2046     		mov	r0, r4
 504 0070 FFF7FEFF 		bl	LCD_PrintString
 505              	.LVL44:
 154:main.c        ****         Set_Speed();
 506              		.loc 1 154 0
 507 0074 FFF7FEFF 		bl	Set_Speed
 508              	.LVL45:
 155:main.c        ****        
 156:main.c        ****         i=speed;   
 509              		.loc 1 156 0
 510 0078 1B4B     		ldr	r3, .L43+40
 511 007a 1C88     		ldrh	r4, [r3]
 512 007c E4B2     		uxtb	r4, r4
 513              	.LVL46:
 157:main.c        ****         CyDelay(200);
 514              		.loc 1 157 0
 515 007e C820     		movs	r0, #200
ARM GAS  C:\Users\JEANPI~1\AppData\Local\Temp\ccFbMV7Z.s 			page 13


 516 0080 FFF7FEFF 		bl	CyDelay
 517              	.LVL47:
 158:main.c        ****         LCD_Position(0,0);
 518              		.loc 1 158 0
 519 0084 0021     		movs	r1, #0
 520 0086 0846     		mov	r0, r1
 521 0088 FFF7FEFF 		bl	LCD_Position
 522              	.LVL48:
 159:main.c        ****         LCD_PrintString("Vel control:");
 523              		.loc 1 159 0
 524 008c 1748     		ldr	r0, .L43+44
 525 008e FFF7FEFF 		bl	LCD_PrintString
 526              	.LVL49:
 160:main.c        ****         LCD_Position(0,12);
 527              		.loc 1 160 0
 528 0092 0C21     		movs	r1, #12
 529 0094 0020     		movs	r0, #0
 530 0096 FFF7FEFF 		bl	LCD_Position
 531              	.LVL50:
 161:main.c        ****         LCD_PrintString(valor);//velocidad de control
 532              		.loc 1 161 0
 533 009a 1548     		ldr	r0, .L43+48
 534 009c FFF7FEFF 		bl	LCD_PrintString
 535              	.LVL51:
 162:main.c        ****         LCD_Position(1,0);
 536              		.loc 1 162 0
 537 00a0 0021     		movs	r1, #0
 538 00a2 0120     		movs	r0, #1
 539 00a4 FFF7FEFF 		bl	LCD_Position
 540              	.LVL52:
 163:main.c        ****         LCD_PrintString("Vel sensor:");
 541              		.loc 1 163 0
 542 00a8 1248     		ldr	r0, .L43+52
 543 00aa FFF7FEFF 		bl	LCD_PrintString
 544              	.LVL53:
 164:main.c        ****         LCD_Position(01,11);
 545              		.loc 1 164 0
 546 00ae 0B21     		movs	r1, #11
 547 00b0 0120     		movs	r0, #1
 548 00b2 FFF7FEFF 		bl	LCD_Position
 549              	.LVL54:
 165:main.c        ****         LCD_PutChar(i);//velocidad medida por el sensor
 550              		.loc 1 165 0
 551 00b6 2046     		mov	r0, r4
 552 00b8 FFF7FEFF 		bl	LCD_PutChar
 553              	.LVL55:
 166:main.c        ****     }
 554              		.loc 1 166 0
 555 00bc B5E7     		b	.L41
 556              	.L44:
 557 00be 00BF     		.align	2
 558              	.L43:
 559 00c0 00000000 		.word	press_ISR
 560 00c4 00000000 		.word	Timer_ISR
 561 00c8 00000000 		.word	Encoder_ISR
 562 00cc 00000000 		.word	sync
 563 00d0 00000000 		.word	.LANCHOR0
ARM GAS  C:\Users\JEANPI~1\AppData\Local\Temp\ccFbMV7Z.s 			page 14


 564 00d4 00000000 		.word	flag_init
 565 00d8 00000000 		.word	counter
 566 00dc 18000000 		.word	.LC2
 567 00e0 00000000 		.word	str
 568 00e4 00000000 		.word	str2
 569 00e8 00000000 		.word	speed
 570 00ec 1C000000 		.word	.LC3
 571 00f0 00000000 		.word	valor
 572 00f4 2C000000 		.word	.LC4
 573              		.cfi_endproc
 574              	.LFE71:
 575              		.size	main, .-main
 576              		.comm	str2,16,4
 577              		.comm	str,16,4
 578              		.global	flag1
 579              		.comm	flag_init,4,4
 580              		.global	speed_read
 581              		.comm	speed,2,2
 582              		.global	pwm_Com
 583              		.global	diff1
 584              		.comm	temp,4,4
 585              		.global	tiempo
 586              		.global	event
 587              		.comm	counter,4,4
 588              		.comm	contador,1,1
 589              		.comm	valor,4,4
 590              		.comm	flag,4,4
 591              		.global	Keypad_1_Key
 592              		.data
 593              		.align	2
 594              		.type	Keypad_1_Key, %object
 595              		.size	Keypad_1_Key, 16
 596              	Keypad_1_Key:
 597 0000 31       		.byte	49
 598 0001 32       		.byte	50
 599 0002 33       		.byte	51
 600 0003 41       		.byte	65
 601 0004 34       		.byte	52
 602 0005 35       		.byte	53
 603 0006 36       		.byte	54
 604 0007 42       		.byte	66
 605 0008 37       		.byte	55
 606 0009 38       		.byte	56
 607 000a 39       		.byte	57
 608 000b 43       		.byte	67
 609 000c 2A       		.byte	42
 610 000d 30       		.byte	48
 611 000e 23       		.byte	35
 612 000f 44       		.byte	68
 613              		.section	.rodata.str1.4,"aMS",%progbits,1
 614              		.align	2
 615              	.LC0:
 616 0000 76656C20 		.ascii	"vel de control\000"
 616      64652063 
 616      6F6E7472 
 616      6F6C00
 617 000f 00       		.space	1
ARM GAS  C:\Users\JEANPI~1\AppData\Local\Temp\ccFbMV7Z.s 			page 15


 618              	.LC1:
 619 0010 76616C6F 		.ascii	"valor:\000"
 619      723A00
 620 0017 00       		.space	1
 621              	.LC2:
 622 0018 256C7500 		.ascii	"%lu\000"
 623              	.LC3:
 624 001c 56656C20 		.ascii	"Vel control:\000"
 624      636F6E74 
 624      726F6C3A 
 624      00
 625 0029 000000   		.space	3
 626              	.LC4:
 627 002c 56656C20 		.ascii	"Vel sensor:\000"
 627      73656E73 
 627      6F723A00 
 628              		.bss
 629              		.align	2
 630              		.set	.LANCHOR0,. + 0
 631              		.type	tiempo, %object
 632              		.size	tiempo, 2
 633              	tiempo:
 634 0000 0000     		.space	2
 635 0002 0000     		.space	2
 636              		.type	diff1, %object
 637              		.size	diff1, 4
 638              	diff1:
 639 0004 00000000 		.space	4
 640              		.type	speed_read, %object
 641              		.size	speed_read, 2
 642              	speed_read:
 643 0008 0000     		.space	2
 644 000a 0000     		.space	2
 645              		.type	flag1, %object
 646              		.size	flag1, 4
 647              	flag1:
 648 000c 00000000 		.space	4
 649              		.type	pwm_Com, %object
 650              		.size	pwm_Com, 2
 651              	pwm_Com:
 652 0010 0000     		.space	2
 653 0012 0000     		.space	2
 654              		.type	event, %object
 655              		.size	event, 4
 656              	event:
 657 0014 00000000 		.space	4
 658              		.text
 659              	.Letext0:
 660              		.file 2 "c:\\program files (x86)\\cypress\\psoc creator\\4.2\\psoc creator\\import\\gnu\\arm\\5.4.
 661              		.file 3 "c:\\program files (x86)\\cypress\\psoc creator\\4.2\\psoc creator\\import\\gnu\\arm\\5.4.
 662              		.file 4 "Generated_Source\\PSoC5/cytypes.h"
 663              		.file 5 "Generated_Source\\PSoC5/core_cm3.h"
 664              		.file 6 "Generated_Source\\PSoC5/isr_1.h"
 665              		.file 7 "Generated_Source\\PSoC5/CyLib.h"
 666              		.file 8 "Generated_Source\\PSoC5/Encoder.h"
 667              		.file 9 "Generated_Source\\PSoC5/sync.h"
 668              		.file 10 "Generated_Source\\PSoC5/LCD.h"
ARM GAS  C:\Users\JEANPI~1\AppData\Local\Temp\ccFbMV7Z.s 			page 16


 669              		.file 11 "Generated_Source\\PSoC5/Keypad_1_Keypad1.h"
 670              		.file 12 "Generated_Source\\PSoC5/isr_press.h"
 671              		.file 13 "Generated_Source\\PSoC5/PWM.h"
 672              		.file 14 "Generated_Source\\PSoC5/isr_Encoder.h"
 673              		.file 15 "Generated_Source\\PSoC5/isr_sync.h"
 674              		.file 16 "Generated_Source\\PSoC5/Timer.h"
 675              		.file 17 "c:\\program files (x86)\\cypress\\psoc creator\\4.2\\psoc creator\\import\\gnu\\arm\\5.4