ARM GAS  C:\Users\JEANPI~1\AppData\Local\Temp\cc5bCXIp.s 			page 1


   1              		.syntax unified
   2              		.cpu cortex-m3
   3              		.fpu softvfp
   4              		.eabi_attribute 20, 1
   5              		.eabi_attribute 21, 1
   6              		.eabi_attribute 23, 3
   7              		.eabi_attribute 24, 1
   8              		.eabi_attribute 25, 1
   9              		.eabi_attribute 26, 1
  10              		.eabi_attribute 30, 1
  11              		.eabi_attribute 34, 1
  12              		.eabi_attribute 18, 4
  13              		.thumb
  14              		.syntax unified
  15              		.file	"main.c"
  16              		.text
  17              	.Ltext0:
  18              		.cfi_sections	.debug_frame
  19              		.section	.text.Timer_ISR,"ax",%progbits
  20              		.align	2
  21              		.global	Timer_ISR
  22              		.thumb
  23              		.thumb_func
  24              		.type	Timer_ISR, %function
  25              	Timer_ISR:
  26              	.LFB67:
  27              		.file 1 "main.c"
   1:main.c        **** #include "project.h"
   2:main.c        **** #include "device.h"
   3:main.c        **** #include "string.h"
   4:main.c        **** #include "project.h"
   5:main.c        **** #include <stdio.h>
   6:main.c        **** #include <stdlib.h>
   7:main.c        **** #define VMAX 400;
   8:main.c        **** 
   9:main.c        **** int flag=1;
  10:main.c        **** int flag_cont=0;
  11:main.c        **** char valor[4];
  12:main.c        **** uint8 contador;
  13:main.c        **** volatile uint32 counter,event=0;
  14:main.c        **** volatile uint16 tiempo=0;
  15:main.c        **** volatile uint32 temp,diff1=0;
  16:main.c        **** volatile uint16 pwm_Com=30;
  17:main.c        **** volatile uint16 speed,speed_read=0; //default user_speed;
  18:main.c        **** int flag1=0;
  19:main.c        **** int flag_init=0;
  20:main.c        **** char str[16],str2[16];
  21:main.c        **** 
  22:main.c        **** 
  23:main.c        **** char8 Keypad_1_Key[4][4] = {
  24:main.c        **** 					{'1','2','3','A'},		//Row 0
  25:main.c        **** 					
  26:main.c        **** 					{'4','5','6','B'},		//Row 1
  27:main.c        **** 										
  28:main.c        **** 					{'7','8','9','C'},		//Row 2
  29:main.c        **** 					
  30:main.c        **** 					{'*','0','#','D'}		//Row 3
ARM GAS  C:\Users\JEANPI~1\AppData\Local\Temp\cc5bCXIp.s 			page 2


  31:main.c        **** 				  };
  32:main.c        **** 
  33:main.c        **** 
  34:main.c        **** 
  35:main.c        **** 
  36:main.c        **** /////////////////convertir velocidad usuario a pwm valor//////////////////
  37:main.c        **** void Convert_Speed(){} 
  38:main.c        **** //////////////////////////////////////////////////////////////////////////
  39:main.c        **** 
  40:main.c        **** ///////////colocamos la velocidad/////////////////////////////////////////
  41:main.c        **** void Set_Speed(){ //Proposito Es Colocar la velocidad  
  42:main.c        ****     PWM_WriteCompare(pwm_Com); 
  43:main.c        **** }
  44:main.c        **** //////////////////////////////////////////////////////////////////////////
  45:main.c        **** 
  46:main.c        **** /////////////////////funcion de control///////////////////////////////////
  47:main.c        **** void Control_Motor(){
  48:main.c        ****     if(speed_read != speed){
  49:main.c        ****         pwm_Com++;
  50:main.c        ****         Set_Speed();
  51:main.c        ****         PWM_WriteCompare(pwm_Com);
  52:main.c        ****     }
  53:main.c        **** } 
  54:main.c        **** //////////////////////////////////////////////////////////////////////////
  55:main.c        **** 
  56:main.c        **** /////////////////////////////configuracion del timer//////////////////////
  57:main.c        **** CY_ISR(Timer_ISR){ //AL SEGUNDO
  28              		.loc 1 57 0
  29              		.cfi_startproc
  30              		@ args = 0, pretend = 0, frame = 0
  31              		@ frame_needed = 0, uses_anonymous_args = 0
  32 0000 10B5     		push	{r4, lr}
  33              		.cfi_def_cfa_offset 8
  34              		.cfi_offset 4, -8
  35              		.cfi_offset 14, -4
  58:main.c        **** if(tiempo<1){
  36              		.loc 1 58 0
  37 0002 114B     		ldr	r3, .L5
  38 0004 1B88     		ldrh	r3, [r3]
  39 0006 9BB2     		uxth	r3, r3
  40 0008 93B9     		cbnz	r3, .L2
  59:main.c        ****     tiempo++;
  41              		.loc 1 59 0
  42 000a 0F4A     		ldr	r2, .L5
  43 000c 1388     		ldrh	r3, [r2]
  44 000e 9BB2     		uxth	r3, r3
  45 0010 0133     		adds	r3, r3, #1
  46 0012 9BB2     		uxth	r3, r3
  47 0014 1380     		strh	r3, [r2]	@ movhi
  60:main.c        ****     diff1=0;
  48              		.loc 1 60 0
  49 0016 0023     		movs	r3, #0
  50 0018 5360     		str	r3, [r2, #4]
  61:main.c        ****     temp=counter;
  51              		.loc 1 61 0
  52 001a 0C4B     		ldr	r3, .L5+4
  53 001c 1968     		ldr	r1, [r3]
ARM GAS  C:\Users\JEANPI~1\AppData\Local\Temp\cc5bCXIp.s 			page 3


  54 001e 0C4B     		ldr	r3, .L5+8
  55 0020 1960     		str	r1, [r3]
  62:main.c        ****     speed_read=temp;
  56              		.loc 1 62 0
  57 0022 1B68     		ldr	r3, [r3]
  58 0024 9BB2     		uxth	r3, r3
  59 0026 1381     		strh	r3, [r2, #8]	@ movhi
  63:main.c        ****     Pin_1_Write(1);
  60              		.loc 1 63 0
  61 0028 0120     		movs	r0, #1
  62 002a FFF7FEFF 		bl	Pin_1_Write
  63              	.LVL0:
  64 002e 07E0     		b	.L3
  65              	.L2:
  64:main.c        **** }else{
  65:main.c        ****     tiempo=0; 
  66              		.loc 1 65 0
  67 0030 0024     		movs	r4, #0
  68 0032 054B     		ldr	r3, .L5
  69 0034 1C80     		strh	r4, [r3]	@ movhi
  66:main.c        ****     Pin_1_Write(0);
  70              		.loc 1 66 0
  71 0036 2046     		mov	r0, r4
  72 0038 FFF7FEFF 		bl	Pin_1_Write
  73              	.LVL1:
  67:main.c        ****     counter=0;
  74              		.loc 1 67 0
  75 003c 034B     		ldr	r3, .L5+4
  76 003e 1C60     		str	r4, [r3]
  77              	.L3:
  68:main.c        **** }
  69:main.c        ****  isr_1_ClearPending();
  78              		.loc 1 69 0
  79 0040 FFF7FEFF 		bl	isr_1_ClearPending
  80              	.LVL2:
  81 0044 10BD     		pop	{r4, pc}
  82              	.L6:
  83 0046 00BF     		.align	2
  84              	.L5:
  85 0048 00000000 		.word	.LANCHOR0
  86 004c 00000000 		.word	counter
  87 0050 00000000 		.word	temp
  88              		.cfi_endproc
  89              	.LFE67:
  90              		.size	Timer_ISR, .-Timer_ISR
  91              		.section	.text.Encoder_ISR,"ax",%progbits
  92              		.align	2
  93              		.global	Encoder_ISR
  94              		.thumb
  95              		.thumb_func
  96              		.type	Encoder_ISR, %function
  97              	Encoder_ISR:
  98              	.LFB68:
  70:main.c        **** }
  71:main.c        **** //////////////////////////////////////////////////////////////////////////
  72:main.c        **** 
  73:main.c        **** //////////////////funcion de lectura del encoder//////////////////////////
ARM GAS  C:\Users\JEANPI~1\AppData\Local\Temp\cc5bCXIp.s 			page 4


  74:main.c        **** CY_ISR(Encoder_ISR){
  99              		.loc 1 74 0
 100              		.cfi_startproc
 101              		@ args = 0, pretend = 0, frame = 0
 102              		@ frame_needed = 0, uses_anonymous_args = 0
 103 0000 08B5     		push	{r3, lr}
 104              		.cfi_def_cfa_offset 8
 105              		.cfi_offset 3, -8
 106              		.cfi_offset 14, -4
 107              	.LVL3:
  75:main.c        ****  uint8 flag2=0;
  76:main.c        **** if(Encoder_Read()==1){ 
 108              		.loc 1 76 0
 109 0002 FFF7FEFF 		bl	Encoder_Read
 110              	.LVL4:
 111 0006 0128     		cmp	r0, #1
 112 0008 05D1     		bne	.L10
 113              	.LVL5:
  77:main.c        ****      flag2=1;
  78:main.c        ****      CyDelayUs(2000);
 114              		.loc 1 78 0
 115 000a 4FF4FA60 		mov	r0, #2000
 116 000e FFF7FEFF 		bl	CyDelayUs
 117              	.LVL6:
  77:main.c        ****      flag2=1;
 118              		.loc 1 77 0
 119 0012 0123     		movs	r3, #1
 120 0014 00E0     		b	.L8
 121              	.LVL7:
 122              	.L10:
  75:main.c        ****  uint8 flag2=0;
 123              		.loc 1 75 0
 124 0016 0023     		movs	r3, #0
 125              	.LVL8:
 126              	.L8:
  79:main.c        **** }
  80:main.c        ****      if(flag2==1) 
 127              		.loc 1 80 0
 128 0018 1BB1     		cbz	r3, .L9
  81:main.c        ****      counter++;
 129              		.loc 1 81 0
 130 001a 034A     		ldr	r2, .L12
 131 001c 1368     		ldr	r3, [r2]
 132              	.LVL9:
 133 001e 0133     		adds	r3, r3, #1
 134 0020 1360     		str	r3, [r2]
 135              	.L9:
  82:main.c        ****      Encoder_ClearInterrupt();
 136              		.loc 1 82 0
 137 0022 FFF7FEFF 		bl	Encoder_ClearInterrupt
 138              	.LVL10:
 139 0026 08BD     		pop	{r3, pc}
 140              	.L13:
 141              		.align	2
 142              	.L12:
 143 0028 00000000 		.word	counter
 144              		.cfi_endproc
ARM GAS  C:\Users\JEANPI~1\AppData\Local\Temp\cc5bCXIp.s 			page 5


 145              	.LFE68:
 146              		.size	Encoder_ISR, .-Encoder_ISR
 147              		.section	.text.press_ISR,"ax",%progbits
 148              		.align	2
 149              		.global	press_ISR
 150              		.thumb
 151              		.thumb_func
 152              		.type	press_ISR, %function
 153              	press_ISR:
 154              	.LFB69:
  83:main.c        **** }
  84:main.c        **** //////////////////////////////////////////////////////////////////////////
  85:main.c        **** 
  86:main.c        **** //////////////////funcion de sincronismo y cruce por cero/////////////////
  87:main.c        **** //CY_ISR(sync){    
  88:main.c        **** //if (flag_cont == 0 && flag==0){    
  89:main.c        ****      
  90:main.c        ****    // CyDelay(50);
  91:main.c        ****   
  92:main.c        ****  //  flag_init=(flag1==1)?1:0;
  93:main.c        ****     //flag_cont++;    
  94:main.c        **** //}
  95:main.c        **** //    sync_ClearInterrupt();
  96:main.c        **** //}
  97:main.c        **** //////////////////////////////////////////////////////////////////////////
  98:main.c        **** 
  99:main.c        **** ////////////////////obtenemos de valor de velocidad///////////////////////
 100:main.c        **** CY_ISR(press_ISR){
 155              		.loc 1 100 0
 156              		.cfi_startproc
 157              		@ args = 0, pretend = 0, frame = 0
 158              		@ frame_needed = 0, uses_anonymous_args = 0
 159 0000 70B5     		push	{r4, r5, r6, lr}
 160              		.cfi_def_cfa_offset 16
 161              		.cfi_offset 4, -16
 162              		.cfi_offset 5, -12
 163              		.cfi_offset 6, -8
 164              		.cfi_offset 14, -4
 165              	.LVL11:
 101:main.c        **** 
 102:main.c        **** int valid=0;  //variable de control de interrupcion  
 103:main.c        **** int cont=0;// variable de conteo
 166              		.loc 1 103 0
 167 0002 0025     		movs	r5, #0
 102:main.c        **** int cont=0;// variable de conteo
 168              		.loc 1 102 0
 169 0004 2E46     		mov	r6, r5
 104:main.c        **** char t;//variable de letra
 105:main.c        ****     while (valid==0 && flag==1){                   
 170              		.loc 1 105 0
 171 0006 3BE0     		b	.L16
 172              	.LVL12:
 173              	.L21:
 106:main.c        ****             LCD_Position(0,0);
 174              		.loc 1 106 0
 175 0008 0021     		movs	r1, #0
 176 000a 0846     		mov	r0, r1
ARM GAS  C:\Users\JEANPI~1\AppData\Local\Temp\cc5bCXIp.s 			page 6


 177 000c FFF7FEFF 		bl	LCD_Position
 178              	.LVL13:
 107:main.c        ****             LCD_PrintString("vel de control");
 179              		.loc 1 107 0
 180 0010 1E48     		ldr	r0, .L23
 181 0012 FFF7FEFF 		bl	LCD_PrintString
 182              	.LVL14:
 108:main.c        ****             t=Keypad_1_GetButton();//obtenemos la letra
 183              		.loc 1 108 0
 184 0016 FFF7FEFF 		bl	Keypad_1_GetButton
 185              	.LVL15:
 186 001a 0446     		mov	r4, r0
 187              	.LVL16:
 109:main.c        ****             CyDelay(200);          //delay necesario para leer bien el teclado 
 188              		.loc 1 109 0
 189 001c C820     		movs	r0, #200
 190 001e FFF7FEFF 		bl	CyDelay
 191              	.LVL17:
 110:main.c        ****             LCD_Position(1,0);
 192              		.loc 1 110 0
 193 0022 0021     		movs	r1, #0
 194 0024 0120     		movs	r0, #1
 195 0026 FFF7FEFF 		bl	LCD_Position
 196              	.LVL18:
 111:main.c        ****             LCD_PrintString("valor:");             
 197              		.loc 1 111 0
 198 002a 1948     		ldr	r0, .L23+4
 199 002c FFF7FEFF 		bl	LCD_PrintString
 200              	.LVL19:
 112:main.c        ****             LCD_Position(1,6+cont);       
 201              		.loc 1 112 0
 202 0030 A91D     		adds	r1, r5, #6
 203 0032 C9B2     		uxtb	r1, r1
 204 0034 0120     		movs	r0, #1
 205 0036 FFF7FEFF 		bl	LCD_Position
 206              	.LVL20:
 113:main.c        ****             LCD_PutChar(t);
 207              		.loc 1 113 0
 208 003a 2046     		mov	r0, r4
 209 003c FFF7FEFF 		bl	LCD_PutChar
 210              	.LVL21:
 114:main.c        ****             if (Keypad_1_GetButton() == 'A'){//aceptacion de valor introducido
 211              		.loc 1 114 0
 212 0040 FFF7FEFF 		bl	Keypad_1_GetButton
 213              	.LVL22:
 214 0044 4128     		cmp	r0, #65
 215 0046 1BD1     		bne	.L16
 115:main.c        ****                 valor[cont]=t;// agregamos valor al array
 216              		.loc 1 115 0
 217 0048 124B     		ldr	r3, .L23+8
 218 004a 5C55     		strb	r4, [r3, r5]
 116:main.c        ****                 
 117:main.c        ****                 CyDelay(300);//delay para leer la aceptacion
 219              		.loc 1 117 0
 220 004c 4FF49670 		mov	r0, #300
 221 0050 FFF7FEFF 		bl	CyDelay
 222              	.LVL23:
ARM GAS  C:\Users\JEANPI~1\AppData\Local\Temp\cc5bCXIp.s 			page 7


 118:main.c        ****                 //LCD_Position(1,6+cont);
 119:main.c        ****                 //LCD_PutChar(valor[cont]);                            
 120:main.c        ****                 cont++;   //amentamos contador
 223              		.loc 1 120 0
 224 0054 0135     		adds	r5, r5, #1
 225              	.LVL24:
 121:main.c        ****                 if ((cont>=4 && Keypad_1_GetButton() == 'B')|| flag==0){ //decicion de salir de int
 226              		.loc 1 121 0
 227 0056 032D     		cmp	r5, #3
 228 0058 03DD     		ble	.L17
 229              		.loc 1 121 0 is_stmt 0 discriminator 1
 230 005a FFF7FEFF 		bl	Keypad_1_GetButton
 231              	.LVL25:
 232 005e 4228     		cmp	r0, #66
 233 0060 02D0     		beq	.L18
 234              	.L17:
 235              		.loc 1 121 0 discriminator 3
 236 0062 0D4B     		ldr	r3, .L23+12
 237 0064 1B68     		ldr	r3, [r3]
 238 0066 5BB9     		cbnz	r3, .L16
 239              	.L18:
 240              	.LVL26:
 122:main.c        ****                     valid=1;//terminamos control
 123:main.c        ****                     flag=0;//no dejamos que vuelva a entrar a la interrupcion
 241              		.loc 1 123 0 is_stmt 1
 242 0068 0022     		movs	r2, #0
 243 006a 0B4B     		ldr	r3, .L23+12
 244 006c 1A60     		str	r2, [r3]
 124:main.c        ****                     flag1=1;
 245              		.loc 1 124 0
 246 006e 0B4C     		ldr	r4, .L23+16
 247              	.LVL27:
 248 0070 0126     		movs	r6, #1
 249 0072 E660     		str	r6, [r4, #12]
 125:main.c        ****                     num_control_Write(1);
 250              		.loc 1 125 0
 251 0074 3046     		mov	r0, r6
 252 0076 FFF7FEFF 		bl	num_control_Write
 253              	.LVL28:
 126:main.c        ****                     flag_init=1;
 254              		.loc 1 126 0
 255 007a 2661     		str	r6, [r4, #16]
 127:main.c        ****                     isr_press_ClearPending();
 256              		.loc 1 127 0
 257 007c FFF7FEFF 		bl	isr_press_ClearPending
 258              	.LVL29:
 259              	.L16:
 105:main.c        ****             LCD_Position(0,0);
 260              		.loc 1 105 0
 261 0080 1EB9     		cbnz	r6, .L14
 105:main.c        ****             LCD_Position(0,0);
 262              		.loc 1 105 0 is_stmt 0 discriminator 1
 263 0082 054B     		ldr	r3, .L23+12
 264 0084 1B68     		ldr	r3, [r3]
 265 0086 012B     		cmp	r3, #1
 266 0088 BED0     		beq	.L21
 267              	.L14:
ARM GAS  C:\Users\JEANPI~1\AppData\Local\Temp\cc5bCXIp.s 			page 8


 268 008a 70BD     		pop	{r4, r5, r6, pc}
 269              	.LVL30:
 270              	.L24:
 271              		.align	2
 272              	.L23:
 273 008c 00000000 		.word	.LC0
 274 0090 10000000 		.word	.LC1
 275 0094 00000000 		.word	valor
 276 0098 00000000 		.word	.LANCHOR1
 277 009c 00000000 		.word	.LANCHOR0
 278              		.cfi_endproc
 279              	.LFE69:
 280              		.size	press_ISR, .-press_ISR
 281              		.section	.text.Convert_Speed,"ax",%progbits
 282              		.align	2
 283              		.global	Convert_Speed
 284              		.thumb
 285              		.thumb_func
 286              		.type	Convert_Speed, %function
 287              	Convert_Speed:
 288              	.LFB64:
  37:main.c        **** //////////////////////////////////////////////////////////////////////////
 289              		.loc 1 37 0 is_stmt 1
 290              		.cfi_startproc
 291              		@ args = 0, pretend = 0, frame = 0
 292              		@ frame_needed = 0, uses_anonymous_args = 0
 293              		@ link register save eliminated.
 294 0000 7047     		bx	lr
 295              		.cfi_endproc
 296              	.LFE64:
 297              		.size	Convert_Speed, .-Convert_Speed
 298 0002 00BF     		.section	.text.Set_Speed,"ax",%progbits
 299              		.align	2
 300              		.global	Set_Speed
 301              		.thumb
 302              		.thumb_func
 303              		.type	Set_Speed, %function
 304              	Set_Speed:
 305              	.LFB65:
  41:main.c        ****     PWM_WriteCompare(pwm_Com); 
 306              		.loc 1 41 0
 307              		.cfi_startproc
 308              		@ args = 0, pretend = 0, frame = 0
 309              		@ frame_needed = 0, uses_anonymous_args = 0
  41:main.c        ****     PWM_WriteCompare(pwm_Com); 
 310              		.loc 1 41 0
 311 0000 08B5     		push	{r3, lr}
 312              		.cfi_def_cfa_offset 8
 313              		.cfi_offset 3, -8
 314              		.cfi_offset 14, -4
  42:main.c        **** }
 315              		.loc 1 42 0
 316 0002 034B     		ldr	r3, .L28
 317 0004 9888     		ldrh	r0, [r3, #4]
 318 0006 C0B2     		uxtb	r0, r0
 319 0008 FFF7FEFF 		bl	PWM_WriteCompare
 320              	.LVL31:
ARM GAS  C:\Users\JEANPI~1\AppData\Local\Temp\cc5bCXIp.s 			page 9


 321 000c 08BD     		pop	{r3, pc}
 322              	.L29:
 323 000e 00BF     		.align	2
 324              	.L28:
 325 0010 00000000 		.word	.LANCHOR1
 326              		.cfi_endproc
 327              	.LFE65:
 328              		.size	Set_Speed, .-Set_Speed
 329              		.section	.text.Control_Motor,"ax",%progbits
 330              		.align	2
 331              		.global	Control_Motor
 332              		.thumb
 333              		.thumb_func
 334              		.type	Control_Motor, %function
 335              	Control_Motor:
 336              	.LFB66:
  47:main.c        ****     if(speed_read != speed){
 337              		.loc 1 47 0
 338              		.cfi_startproc
 339              		@ args = 0, pretend = 0, frame = 0
 340              		@ frame_needed = 0, uses_anonymous_args = 0
  48:main.c        ****         pwm_Com++;
 341              		.loc 1 48 0
 342 0000 0B4B     		ldr	r3, .L34
 343 0002 1A89     		ldrh	r2, [r3, #8]
 344 0004 92B2     		uxth	r2, r2
 345 0006 0B4B     		ldr	r3, .L34+4
 346 0008 1B88     		ldrh	r3, [r3]
 347 000a 9BB2     		uxth	r3, r3
 348 000c 9A42     		cmp	r2, r3
 349 000e 0DD0     		beq	.L33
  47:main.c        ****     if(speed_read != speed){
 350              		.loc 1 47 0
 351 0010 10B5     		push	{r4, lr}
 352              		.cfi_def_cfa_offset 8
 353              		.cfi_offset 4, -8
 354              		.cfi_offset 14, -4
  49:main.c        ****         Set_Speed();
 355              		.loc 1 49 0
 356 0012 094C     		ldr	r4, .L34+8
 357 0014 A388     		ldrh	r3, [r4, #4]
 358 0016 9BB2     		uxth	r3, r3
 359 0018 0133     		adds	r3, r3, #1
 360 001a 9BB2     		uxth	r3, r3
 361 001c A380     		strh	r3, [r4, #4]	@ movhi
  50:main.c        ****         PWM_WriteCompare(pwm_Com);
 362              		.loc 1 50 0
 363 001e FFF7FEFF 		bl	Set_Speed
 364              	.LVL32:
  51:main.c        ****     }
 365              		.loc 1 51 0
 366 0022 A088     		ldrh	r0, [r4, #4]
 367 0024 C0B2     		uxtb	r0, r0
 368 0026 FFF7FEFF 		bl	PWM_WriteCompare
 369              	.LVL33:
 370 002a 10BD     		pop	{r4, pc}
 371              	.L33:
ARM GAS  C:\Users\JEANPI~1\AppData\Local\Temp\cc5bCXIp.s 			page 10


 372              		.cfi_def_cfa_offset 0
 373              		.cfi_restore 4
 374              		.cfi_restore 14
 375 002c 7047     		bx	lr
 376              	.L35:
 377 002e 00BF     		.align	2
 378              	.L34:
 379 0030 00000000 		.word	.LANCHOR0
 380 0034 00000000 		.word	speed
 381 0038 00000000 		.word	.LANCHOR1
 382              		.cfi_endproc
 383              	.LFE66:
 384              		.size	Control_Motor, .-Control_Motor
 385              		.section	.text.main,"ax",%progbits
 386              		.align	2
 387              		.global	main
 388              		.thumb
 389              		.thumb_func
 390              		.type	main, %function
 391              	main:
 392              	.LFB70:
 128:main.c        ****                 }
 129:main.c        ****             }
 130:main.c        ****            
 131:main.c        ****     }
 132:main.c        ****     
 133:main.c        **** }
 134:main.c        **** //////////////////////////////////////////////////////////////////////////
 135:main.c        **** 
 136:main.c        **** 
 137:main.c        **** int main(void)
 138:main.c        **** {
 393              		.loc 1 138 0
 394              		.cfi_startproc
 395              		@ args = 0, pretend = 0, frame = 0
 396              		@ frame_needed = 0, uses_anonymous_args = 0
 397 0000 10B5     		push	{r4, lr}
 398              		.cfi_def_cfa_offset 8
 399              		.cfi_offset 4, -8
 400              		.cfi_offset 14, -4
 139:main.c        ****     //--------------interrupcione-----------
 140:main.c        ****     CyGlobalIntEnable;
 401              		.loc 1 140 0
 402              		.syntax unified
 403              	@ 140 "main.c" 1
 404 0002 62B6     		CPSIE   i
 405              	@ 0 "" 2
 141:main.c        ****     isr_press_StartEx(press_ISR);
 406              		.loc 1 141 0
 407              		.thumb
 408              		.syntax unified
 409 0004 2148     		ldr	r0, .L40
 410 0006 FFF7FEFF 		bl	isr_press_StartEx
 411              	.LVL34:
 142:main.c        ****     isr_1_StartEx(Timer_ISR);
 412              		.loc 1 142 0
 413 000a 2148     		ldr	r0, .L40+4
ARM GAS  C:\Users\JEANPI~1\AppData\Local\Temp\cc5bCXIp.s 			page 11


 414 000c FFF7FEFF 		bl	isr_1_StartEx
 415              	.LVL35:
 143:main.c        ****     isr_Encoder_StartEx(Encoder_ISR);
 416              		.loc 1 143 0
 417 0010 2048     		ldr	r0, .L40+8
 418 0012 FFF7FEFF 		bl	isr_Encoder_StartEx
 419              	.LVL36:
 144:main.c        ****    // isr_sync_StartEx(sync); 
 145:main.c        ****     
 146:main.c        ****    //--------incio de LCD---------------
 147:main.c        ****     LCD_Start();
 420              		.loc 1 147 0
 421 0016 FFF7FEFF 		bl	LCD_Start
 422              	.LVL37:
 148:main.c        ****     
 149:main.c        ****     //----variables--------------   
 150:main.c        ****     //pwm_Com=180;
 151:main.c        ****     //Pin_1_Write(_Read());
 152:main.c        ****     //CyDelay(1000);
 153:main.c        ****     event=0;
 423              		.loc 1 153 0
 424 001a 0022     		movs	r2, #0
 425 001c 1E4B     		ldr	r3, .L40+12
 426 001e 5A61     		str	r2, [r3, #20]
 427              	.L38:
 154:main.c        ****     char8 i;
 155:main.c        ****     
 156:main.c        ****     for(;;)
 157:main.c        ****     {
 158:main.c        ****         //PWM_Start();
 159:main.c        ****         if(flag_init==1){
 428              		.loc 1 159 0
 429 0020 1D4B     		ldr	r3, .L40+12
 430 0022 1B69     		ldr	r3, [r3, #16]
 431 0024 012B     		cmp	r3, #1
 432 0026 05D1     		bne	.L37
 160:main.c        ****             Set_Speed();    
 433              		.loc 1 160 0
 434 0028 FFF7FEFF 		bl	Set_Speed
 435              	.LVL38:
 161:main.c        ****             PWM_Start();         
 436              		.loc 1 161 0
 437 002c FFF7FEFF 		bl	PWM_Start
 438              	.LVL39:
 162:main.c        ****             Timer_Start();
 439              		.loc 1 162 0
 440 0030 FFF7FEFF 		bl	Timer_Start
 441              	.LVL40:
 442              	.L37:
 163:main.c        ****            // isr_sync_Disable();
 164:main.c        ****         } 
 165:main.c        ****         ////////////////////para reconocoer el cruce/////////
 166:main.c        ****        // if (cruce_por_cero_Read() == 1){
 167:main.c        ****        //     LCD_Position(0,0);
 168:main.c        ****        //     LCD_PrintString("cruce");
 169:main.c        ****             //CyDelay(500);
 170:main.c        ****        //     LCD_ClearDisplay();
ARM GAS  C:\Users\JEANPI~1\AppData\Local\Temp\cc5bCXIp.s 			page 12


 171:main.c        ****        // }
 172:main.c        ****         ///////////////////////////////////////////
 173:main.c        ****         //Pin_1_Write();
 174:main.c        ****         //LCD_Position(1,2);
 175:main.c        ****         sprintf(str,"%u",speed_read);
 443              		.loc 1 175 0
 444 0034 184B     		ldr	r3, .L40+12
 445 0036 1A89     		ldrh	r2, [r3, #8]
 446 0038 184C     		ldr	r4, .L40+16
 447 003a 92B2     		uxth	r2, r2
 448 003c 1849     		ldr	r1, .L40+20
 449 003e 2046     		mov	r0, r4
 450 0040 FFF7FEFF 		bl	sprintf
 451              	.LVL41:
 176:main.c        ****         //LCD_PrintString(str); 
 177:main.c        ****         //LCD_Position(0,2);       
 178:main.c        ****         //sprintf(str2,"%lu",diff1);
 179:main.c        ****        // LCD_PrintString(str2);
 180:main.c        ****         Set_Speed();
 452              		.loc 1 180 0
 453 0044 FFF7FEFF 		bl	Set_Speed
 454              	.LVL42:
 181:main.c        ****        
 182:main.c        ****         i=speed;   
 455              		.loc 1 182 0
 456 0048 164B     		ldr	r3, .L40+24
 457 004a 1B88     		ldrh	r3, [r3]
 458              	.LVL43:
 183:main.c        ****         CyDelay(200);
 459              		.loc 1 183 0
 460 004c C820     		movs	r0, #200
 461 004e FFF7FEFF 		bl	CyDelay
 462              	.LVL44:
 184:main.c        ****         LCD_Position(0,0);
 463              		.loc 1 184 0
 464 0052 0021     		movs	r1, #0
 465 0054 0846     		mov	r0, r1
 466 0056 FFF7FEFF 		bl	LCD_Position
 467              	.LVL45:
 185:main.c        ****         LCD_PrintString("Vel control:");
 468              		.loc 1 185 0
 469 005a 1348     		ldr	r0, .L40+28
 470 005c FFF7FEFF 		bl	LCD_PrintString
 471              	.LVL46:
 186:main.c        ****         LCD_Position(0,12);
 472              		.loc 1 186 0
 473 0060 0C21     		movs	r1, #12
 474 0062 0020     		movs	r0, #0
 475 0064 FFF7FEFF 		bl	LCD_Position
 476              	.LVL47:
 187:main.c        ****         LCD_PrintString(valor);//velocidad de control
 477              		.loc 1 187 0
 478 0068 1048     		ldr	r0, .L40+32
 479 006a FFF7FEFF 		bl	LCD_PrintString
 480              	.LVL48:
 188:main.c        ****         LCD_Position(1,0);
 481              		.loc 1 188 0
ARM GAS  C:\Users\JEANPI~1\AppData\Local\Temp\cc5bCXIp.s 			page 13


 482 006e 0021     		movs	r1, #0
 483 0070 0120     		movs	r0, #1
 484 0072 FFF7FEFF 		bl	LCD_Position
 485              	.LVL49:
 189:main.c        ****         LCD_PrintString("Vel sensor:");
 486              		.loc 1 189 0
 487 0076 0E48     		ldr	r0, .L40+36
 488 0078 FFF7FEFF 		bl	LCD_PrintString
 489              	.LVL50:
 190:main.c        ****         LCD_Position(01,11);
 490              		.loc 1 190 0
 491 007c 0B21     		movs	r1, #11
 492 007e 0120     		movs	r0, #1
 493 0080 FFF7FEFF 		bl	LCD_Position
 494              	.LVL51:
 191:main.c        ****         LCD_PrintString(str);//velocidad medida por el sensor
 495              		.loc 1 191 0
 496 0084 2046     		mov	r0, r4
 497 0086 FFF7FEFF 		bl	LCD_PrintString
 498              	.LVL52:
 192:main.c        ****     }
 499              		.loc 1 192 0
 500 008a C9E7     		b	.L38
 501              	.L41:
 502              		.align	2
 503              	.L40:
 504 008c 00000000 		.word	press_ISR
 505 0090 00000000 		.word	Timer_ISR
 506 0094 00000000 		.word	Encoder_ISR
 507 0098 00000000 		.word	.LANCHOR0
 508 009c 00000000 		.word	str
 509 00a0 18000000 		.word	.LC2
 510 00a4 00000000 		.word	speed
 511 00a8 1C000000 		.word	.LC3
 512 00ac 00000000 		.word	valor
 513 00b0 2C000000 		.word	.LC4
 514              		.cfi_endproc
 515              	.LFE70:
 516              		.size	main, .-main
 517              		.comm	str2,16,4
 518              		.comm	str,16,4
 519              		.global	flag_init
 520              		.global	flag1
 521              		.global	speed_read
 522              		.comm	speed,2,2
 523              		.global	pwm_Com
 524              		.global	diff1
 525              		.comm	temp,4,4
 526              		.global	tiempo
 527              		.global	event
 528              		.comm	counter,4,4
 529              		.comm	contador,1,1
 530              		.comm	valor,4,4
 531              		.global	flag_cont
 532              		.global	flag
 533              		.global	Keypad_1_Key
 534              		.data
ARM GAS  C:\Users\JEANPI~1\AppData\Local\Temp\cc5bCXIp.s 			page 14


 535              		.align	2
 536              		.set	.LANCHOR1,. + 0
 537              		.type	flag, %object
 538              		.size	flag, 4
 539              	flag:
 540 0000 01000000 		.word	1
 541              		.type	pwm_Com, %object
 542              		.size	pwm_Com, 2
 543              	pwm_Com:
 544 0004 1E00     		.short	30
 545 0006 0000     		.space	2
 546              		.type	Keypad_1_Key, %object
 547              		.size	Keypad_1_Key, 16
 548              	Keypad_1_Key:
 549 0008 31       		.byte	49
 550 0009 32       		.byte	50
 551 000a 33       		.byte	51
 552 000b 41       		.byte	65
 553 000c 34       		.byte	52
 554 000d 35       		.byte	53
 555 000e 36       		.byte	54
 556 000f 42       		.byte	66
 557 0010 37       		.byte	55
 558 0011 38       		.byte	56
 559 0012 39       		.byte	57
 560 0013 43       		.byte	67
 561 0014 2A       		.byte	42
 562 0015 30       		.byte	48
 563 0016 23       		.byte	35
 564 0017 44       		.byte	68
 565              		.section	.rodata.str1.4,"aMS",%progbits,1
 566              		.align	2
 567              	.LC0:
 568 0000 76656C20 		.ascii	"vel de control\000"
 568      64652063 
 568      6F6E7472 
 568      6F6C00
 569 000f 00       		.space	1
 570              	.LC1:
 571 0010 76616C6F 		.ascii	"valor:\000"
 571      723A00
 572 0017 00       		.space	1
 573              	.LC2:
 574 0018 257500   		.ascii	"%u\000"
 575 001b 00       		.space	1
 576              	.LC3:
 577 001c 56656C20 		.ascii	"Vel control:\000"
 577      636F6E74 
 577      726F6C3A 
 577      00
 578 0029 000000   		.space	3
 579              	.LC4:
 580 002c 56656C20 		.ascii	"Vel sensor:\000"
 580      73656E73 
 580      6F723A00 
 581              		.bss
 582              		.align	2
ARM GAS  C:\Users\JEANPI~1\AppData\Local\Temp\cc5bCXIp.s 			page 15


 583              		.set	.LANCHOR0,. + 0
 584              		.type	tiempo, %object
 585              		.size	tiempo, 2
 586              	tiempo:
 587 0000 0000     		.space	2
 588 0002 0000     		.space	2
 589              		.type	diff1, %object
 590              		.size	diff1, 4
 591              	diff1:
 592 0004 00000000 		.space	4
 593              		.type	speed_read, %object
 594              		.size	speed_read, 2
 595              	speed_read:
 596 0008 0000     		.space	2
 597 000a 0000     		.space	2
 598              		.type	flag1, %object
 599              		.size	flag1, 4
 600              	flag1:
 601 000c 00000000 		.space	4
 602              		.type	flag_init, %object
 603              		.size	flag_init, 4
 604              	flag_init:
 605 0010 00000000 		.space	4
 606              		.type	event, %object
 607              		.size	event, 4
 608              	event:
 609 0014 00000000 		.space	4
 610              		.type	flag_cont, %object
 611              		.size	flag_cont, 4
 612              	flag_cont:
 613 0018 00000000 		.space	4
 614              		.text
 615              	.Letext0:
 616              		.file 2 "c:\\program files (x86)\\cypress\\psoc creator\\4.2\\psoc creator\\import\\gnu\\arm\\5.4.
 617              		.file 3 "c:\\program files (x86)\\cypress\\psoc creator\\4.2\\psoc creator\\import\\gnu\\arm\\5.4.
 618              		.file 4 "Generated_Source\\PSoC5/cytypes.h"
 619              		.file 5 "Generated_Source\\PSoC5/core_cm3.h"
 620              		.file 6 "Generated_Source\\PSoC5/Pin_1.h"
 621              		.file 7 "Generated_Source\\PSoC5/isr_1.h"
 622              		.file 8 "Generated_Source\\PSoC5/Encoder.h"
 623              		.file 9 "Generated_Source\\PSoC5/CyLib.h"
 624              		.file 10 "Generated_Source\\PSoC5/LCD.h"
 625              		.file 11 "Generated_Source\\PSoC5/Keypad_1_Keypad1.h"
 626              		.file 12 "Generated_Source\\PSoC5/num_control.h"
 627              		.file 13 "Generated_Source\\PSoC5/isr_press.h"
 628              		.file 14 "Generated_Source\\PSoC5/PWM.h"
 629              		.file 15 "Generated_Source\\PSoC5/isr_Encoder.h"
 630              		.file 16 "Generated_Source\\PSoC5/Timer.h"
 631              		.file 17 "c:\\program files (x86)\\cypress\\psoc creator\\4.2\\psoc creator\\import\\gnu\\arm\\5.4